

Microchip MPLAB XC8 Assembler V2.40 build 20220703182018 
                                                                                               Sun Nov 05 13:02:48 2023

Microchip MPLAB XC8 C Compiler v2.40 (Free license) build 20220703182018 Og1 
     1                           	processor	18F4620
     2                           	fnconf	rparam,??,?,0
     3                           	pagewidth 120
     4                           	opt	flic
     5                           	psect	idataCOMRAM,global,class=CODE,delta=1,noexec
     6                           	psect	idataBANK0,global,class=CODE,delta=1,noexec
     7                           	psect	idataBANK1,global,class=CODE,delta=1,noexec
     8                           	psect	smallconst,global,reloc=2,class=SMALLCONST,delta=1,noexec
     9                           	psect	cinit,global,reloc=2,class=CODE,delta=1
    10                           	psect	bssCOMRAM,global,class=COMRAM,space=1,delta=1,lowdata,noexec
    11                           	psect	dataCOMRAM,global,class=COMRAM,space=1,delta=1,lowdata,noexec
    12                           	psect	bssBANK0,global,class=BANK0,space=1,delta=1,lowdata,noexec
    13                           	psect	dataBANK0,global,class=BANK0,space=1,delta=1,lowdata,noexec
    14                           	psect	dataBANK1,global,class=BANK1,space=1,delta=1,lowdata,noexec
    15                           	psect	cstackCOMRAM,global,class=COMRAM,space=1,delta=1,lowdata,noexec
    16                           	psect	text0,global,reloc=2,class=CODE,delta=1
    17                           	psect	text1,global,reloc=2,class=CODE,delta=1
    18                           	psect	text2,global,reloc=2,class=CODE,delta=1
    19                           	psect	text3,global,reloc=2,class=CODE,delta=1
    20                           	psect	text4,global,reloc=2,class=CODE,delta=1
    21                           	psect	text5,global,reloc=2,class=CODE,delta=1
    22                           	psect	text6,global,reloc=2,class=CODE,delta=1,inline
    23                           	psect	text7,global,reloc=2,class=CODE,delta=1,inline
    24                           	psect	text8,global,reloc=2,class=CODE,delta=1,inline
    25                           	psect	text9,global,reloc=2,class=CODE,delta=1,inline
    26                           	psect	text10,global,reloc=2,class=CODE,delta=1,group=1
    27                           	psect	text11,global,reloc=2,class=CODE,delta=1,group=1
    28                           	psect	text12,global,reloc=2,class=CODE,delta=1,group=1
    29                           	psect	text13,global,reloc=2,class=CODE,delta=1,group=1
    30                           	psect	intcode,global,reloc=2,class=CODE,delta=1
    31                           	psect	intcode_body,global,reloc=2,class=CODE,delta=1
    32                           	psect	text15,global,reloc=2,class=CODE,delta=1
    33                           	psect	text16,global,reloc=2,class=CODE,delta=1
    34                           	psect	text17,global,reloc=2,class=CODE,delta=1
    35                           	psect	text18,global,reloc=2,class=CODE,delta=1
    36                           	psect	text19,global,reloc=2,class=CODE,delta=1
    37                           	psect	text20,global,reloc=2,class=CODE,delta=1
    38                           	psect	text21,global,reloc=2,class=CODE,delta=1
    39                           	psect	text22,global,reloc=2,class=CODE,delta=1
    40                           	psect	text23,global,reloc=2,class=CODE,delta=1
    41                           	psect	text24,global,reloc=2,class=CODE,delta=1
    42                           	psect	text25,global,reloc=2,class=CODE,delta=1
    43                           	psect	text26,global,reloc=2,class=CODE,delta=1
    44                           	psect	text27,global,reloc=2,class=CODE,delta=1
    45                           	psect	text28,global,reloc=2,class=CODE,delta=1
    46                           	psect	text29,global,reloc=2,class=CODE,delta=1
    47                           	psect	intsave_regs,global,class=BIGRAM,space=1,delta=1,noexec
    48                           	psect	rparam,global,class=COMRAM,space=1,delta=1,noexec
    49                           	psect	temp,global,ovrld,common,class=COMRAM,space=1,delta=1
    50                           	psect	idloc,global,abs,ovrld,class=IDLOC,space=5,delta=1,noexec
    51                           	psect	config,global,abs,ovrld,class=CONFIG,space=4,delta=1,noexec
    52   000000                     
    53                           ; Version 2.40
    54                           ; Generated 17/11/2021 GMT
    55                           ; 
    56                           ; Copyright © 2021, Microchip Technology Inc. and its subsidiaries ("Microchip")
    57                           ; All rights reserved.
    58                           ; 
    59                           ; This software is developed by Microchip Technology Inc. and its subsidiaries ("Microch
      +                          ip").
    60                           ; 
    61                           ; Redistribution and use in source and binary forms, with or without modification, are
    62                           ; permitted provided that the following conditions are met:
    63                           ; 
    64                           ;     1. Redistributions of source code must retain the above copyright notice, this lis
      +                          t of
    65                           ;        conditions and the following disclaimer.
    66                           ; 
    67                           ;     2. Redistributions in binary form must reproduce the above copyright notice, this 
      +                          list
    68                           ;        of conditions and the following disclaimer in the documentation and/or other
    69                           ;        materials provided with the distribution. Publication is not required when
    70                           ;        this file is used in an embedded application.
    71                           ; 
    72                           ;     3. Microchip's name may not be used to endorse or promote products derived from th
      +                          is
    73                           ;        software without specific prior written permission.
    74                           ; 
    75                           ; THIS SOFTWARE IS PROVIDED BY MICROCHIP "AS IS" AND ANY EXPRESS OR IMPLIED WARRANTIES,
    76                           ; INCLUDING, BUT NOT LIMITED TO, THE IMPLIED WARRANTIES OF MERCHANTABILITY AND FITNESS F
      +                          OR
    77                           ; PURPOSE ARE DISCLAIMED.  IN NO EVENT SHALL MICROCHIP BE LIABLE FOR ANY DIRECT, INDIREC
      +                          T,
    78                           ; INCIDENTAL, SPECIAL, EXEMPLARY, OR CONSEQUENTIAL DAMAGES (INCLUDING BUT NOT LIMITED TO
    79                           ; PROCUREMENT OF SUBSTITUTE GOODS OR SERVICES; LOSS OF USE, DATA OR PROFITS; OR BUSINESS
    80                           ; INTERRUPTION) HOWSOEVER CAUSED AND ON ANY THEORY OF LIABILITY, WHETHER IN CONTRACT, ST
      +                          RICT
    81                           ; LIABILITY, OR TORT (INCLUDING NEGLIGENCE OR OTHERWISE) ARISING IN ANY WAY OUT OF THE U
      +                          SE OF
    82                           ; THIS SOFTWARE, EVEN IF ADVISED OF THE POSSIBILITY OF SUCH DAMAGE.
    83                           ; 
    84                           ; 
    85                           ; Code-generator required, PIC18F4620 Definitions
    86                           ; 
    87                           ; SFR Addresses
    88   000000                     
    89                           	psect	idataCOMRAM
    90   0023B2                     __pidataCOMRAM:
    91                           	callstack 0
    92                           
    93                           ;initializer for SPI_Slave_Gpio_Cfg@F3548
    94   0023B2  68                 	db	104
    95                           
    96                           ;initializer for SPI_Slave_Gpio_Cfg@F3546
    97   0023B3  5A                 	db	90
    98                           
    99                           ;initializer for SPI_Slave_Gpio_Cfg@F3544
   100   0023B4  62                 	db	98
   101                           
   102                           ;initializer for SPI_Slave_Gpio_Cfg@F3542
   103   0023B5  2A                 	db	42
   104                           
   105                           ;initializer for SPI_Master_Gpio_Cfg@F3537
   106   0023B6  1A                 	db	26
   107                           
   108                           ;initializer for SPI_Master_Gpio_Cfg@F3535
   109   0023B7  62                 	db	98
   110                           
   111                           ;initializer for SPI_Master_Gpio_Cfg@F3533
   112   0023B8  2A                 	db	42
   113                           
   114                           ;initializer for _RB7_Flag
   115   0023B9  01                 	db	1
   116                           
   117                           ;initializer for _RB6_Flag
   118   0023BA  01                 	db	1
   119                           
   120                           ;initializer for _RB5_Flag
   121   0023BB  01                 	db	1
   122                           
   123                           ;initializer for _RB4_Flag
   124   0023BC  01                 	db	1
   125                           
   126                           ;initializer for __relay
   127   0023BD  02                 	db	2
   128                           
   129                           ;initializer for _led4
   130   0023BE  32                 	db	50
   131                           
   132                           ;initializer for _led3
   133   0023BF  22                 	db	34
   134                           
   135                           ;initializer for _led2
   136   0023C0  12                 	db	18
   137                           
   138                           ;initializer for _led1
   139   0023C1  01                 	db	1
   140                           
   141                           ;initializer for __pin_config
   142   0023C2  53                 	db	83
   143                           
   144                           	psect	idataBANK0
   145   0021C2                     __pidataBANK0:
   146                           	callstack 0
   147                           
   148                           ;initializer for _port_registers
   149   0021C2  80                 	db	128
   150   0021C3  0F                 	db	15
   151   0021C4  81                 	db	129
   152   0021C5  0F                 	db	15
   153   0021C6  82                 	db	130
   154   0021C7  0F                 	db	15
   155   0021C8  83                 	db	131
   156   0021C9  0F                 	db	15
   157   0021CA  84                 	db	132
   158   0021CB  0F                 	db	15
   159                           
   160                           ;initializer for _lat_registers
   161   0021CC  89                 	db	137
   162   0021CD  0F                 	db	15
   163   0021CE  8A                 	db	138
   164   0021CF  0F                 	db	15
   165   0021D0  8B                 	db	139
   166   0021D1  0F                 	db	15
   167   0021D2  8C                 	db	140
   168   0021D3  0F                 	db	15
   169   0021D4  8D                 	db	141
   170   0021D5  0F                 	db	15
   171                           
   172                           ;initializer for _tris_registers
   173   0021D6  92                 	db	146
   174   0021D7  0F                 	db	15
   175   0021D8  93                 	db	147
   176   0021D9  0F                 	db	15
   177   0021DA  94                 	db	148
   178   0021DB  0F                 	db	15
   179   0021DC  95                 	db	149
   180   0021DD  0F                 	db	15
   181   0021DE  96                 	db	150
   182   0021DF  0F                 	db	15
   183                           
   184                           ;initializer for _cross_bar3
   185   0021E0  1F                 	db	31
   186   0021E1  10                 	db	16
   187   0021E2  10                 	db	16
   188   0021E3  10                 	db	16
   189   0021E4  10                 	db	16
   190   0021E5  10                 	db	16
   191   0021E6  10                 	db	16
   192   0021E7  10                 	db	16
   193                           
   194                           ;initializer for _cross_bar2
   195   0021E8  1F                 	db	31
   196   0021E9  01                 	db	1
   197   0021EA  01                 	db	1
   198   0021EB  01                 	db	1
   199   0021EC  01                 	db	1
   200   0021ED  01                 	db	1
   201   0021EE  01                 	db	1
   202   0021EF  01                 	db	1
   203                           
   204                           ;initializer for _cross_bar1
   205   0021F0  01                 	db	1
   206   0021F1  01                 	db	1
   207   0021F2  01                 	db	1
   208   0021F3  01                 	db	1
   209   0021F4  01                 	db	1
   210   0021F5  01                 	db	1
   211   0021F6  01                 	db	1
   212   0021F7  00                 	db	0
   213                           
   214                           ;initializer for _lcd_1
   215   0021F8  02                 	db	2
   216   0021F9  0A                 	db	10
   217   0021FA  12                 	db	18
   218   0021FB  1A                 	db	26
   219   0021FC  22                 	db	34
   220   0021FD  2A                 	db	42
   221                           
   222                           ;initializer for _seg1
   223   0021FE  82                 	db	130
   224   0021FF  8A                 	db	138
   225   002200  92                 	db	146
   226   002201  9A                 	db	154
   227   002202  01                 	db	1
   228                           
   229                           ;initializer for _btn1
   230   002203  53                 	db	83
   231   002204  01                 	db	1
   232   002205  00                 	db	0
   233                           
   234                           ;initializer for _dc_motor_1
   235   002206  03                 	db	3
   236   002207  0B                 	db	11
   237                           
   238                           ;initializer for _i2c_obj
   239   002208  86A0               	dw	34464
   240   00220A  08                 	db	8
   241   00220B  00                 	db	0
   242   00220C  03                 	db	3
   243   00220D  00                 	db	0
   244   00220E  00                 	db	0
   245   00220F  00                 	db	0
   246   002210  00                 	db	0
   247   002211  00                 	db	0
   248   002212  00                 	db	0
   249   002213  00                 	db	0
   250   002214  00                 	db	0
   251                           
   252                           	psect	idataBANK1
   253   002215                     __pidataBANK1:
   254                           	callstack 0
   255                           
   256                           ;initializer for _lcd_2
   257   002215  32                 	db	50
   258   002216  3A                 	db	58
   259   002217  03                 	db	3
   260   002218  0B                 	db	11
   261   002219  13                 	db	19
   262   00221A  1B                 	db	27
   263   00221B  23                 	db	35
   264   00221C  2B                 	db	43
   265   00221D  33                 	db	51
   266   00221E  3B                 	db	59
   267                           
   268                           ;initializer for _keypad1
   269   00221F  01                 	db	1
   270   002220  09                 	db	9
   271   002221  11                 	db	17
   272   002222  19                 	db	25
   273   002223  61                 	db	97
   274   002224  69                 	db	105
   275   002225  71                 	db	113
   276   002226  79                 	db	121
   277                           
   278                           ;initializer for _ball
   279   002227  00                 	db	0
   280   002228  00                 	db	0
   281   002229  00                 	db	0
   282   00222A  00                 	db	0
   283   00222B  1C                 	db	28
   284   00222C  1C                 	db	28
   285   00222D  1C                 	db	28
   286   00222E  00                 	db	0
   287                           
   288                           ;initializer for _goal
   289   00222F  00                 	db	0
   290   002230  00                 	db	0
   291   002231  1F                 	db	31
   292   002232  11                 	db	17
   293   002233  11                 	db	17
   294   002234  11                 	db	17
   295   002235  00                 	db	0
   296   002236  00                 	db	0
   297                           
   298                           ;initializer for _messi
   299   002237  0E                 	db	14
   300   002238  0A                 	db	10
   301   002239  0E                 	db	14
   302   00223A  15                 	db	21
   303   00223B  04                 	db	4
   304   00223C  0A                 	db	10
   305   00223D  11                 	db	17
   306   00223E  00                 	db	0
   307                           
   308                           ;initializer for _killer
   309   00223F  07                 	db	7
   310   002240  05                 	db	5
   311   002241  02                 	db	2
   312   002242  0E                 	db	14
   313   002243  02                 	db	2
   314   002244  02                 	db	2
   315   002245  05                 	db	5
   316   002246  00                 	db	0
   317                           
   318                           ;initializer for _zizo_dead
   319   002247  00                 	db	0
   320   002248  00                 	db	0
   321   002249  00                 	db	0
   322   00224A  01                 	db	1
   323   00224B  13                 	db	19
   324   00224C  1F                 	db	31
   325   00224D  00                 	db	0
   326   00224E  00                 	db	0
   327                           
   328                           ;initializer for _zizo
   329   00224F  0E                 	db	14
   330   002250  0A                 	db	10
   331   002251  0E                 	db	14
   332   002252  15                 	db	21
   333   002253  04                 	db	4
   334   002254  0A                 	db	10
   335   002255  11                 	db	17
   336   002256  00                 	db	0
   337                           
   338                           ;initializer for _cross_bar4
   339   002257  10                 	db	16
   340   002258  10                 	db	16
   341   002259  10                 	db	16
   342   00225A  10                 	db	16
   343   00225B  10                 	db	16
   344   00225C  10                 	db	16
   345   00225D  10                 	db	16
   346   00225E  10                 	db	16
   347                           
   348                           	psect	smallconst
   349   001000                     __psmallconst:
   350                           	callstack 0
   351   001000  00                 	db	0
   352   001001  37                 	db	55
   353   001002  38                 	db	56
   354   001003  39                 	db	57
   355   001004  2F                 	db	47
   356   001005  34                 	db	52
   357   001006  35                 	db	53
   358   001007  36                 	db	54
   359   001008  2A                 	db	42
   360   001009  31                 	db	49
   361   00100A  32                 	db	50
   362   00100B  33                 	db	51
   363   00100C  2D                 	db	45
   364   00100D  23                 	db	35
   365   00100E  30                 	db	48
   366   00100F  3D                 	db	61
   367   001010  2B                 	db	43
   368   001011                     __end_of_btn_values:
   369                           	callstack 0
   370   000000                     _SSPADD	set	4040
   371   000000                     _SSPCON2bits	set	4037
   372   000000                     _SPBRGH	set	4016
   373   000000                     _SPBRG	set	4015
   374   000000                     _TXREG	set	4013
   375   000000                     _TXSTAbits	set	4012
   376   000000                     _RCSTAbits	set	4011
   377   000000                     _TMR3L	set	4018
   378   000000                     _TMR3H	set	4019
   379   000000                     _TMR2	set	4044
   380   000000                     _T2CONbits	set	4042
   381   000000                     _TMR1L	set	4046
   382   000000                     _TMR1H	set	4047
   383   000000                     _T1CONbits	set	4045
   384   000000                     _TMR0L	set	4054
   385   000000                     _TMR0H	set	4055
   386   000000                     _T0CONbits	set	4053
   387   000000                     _RCREG	set	4014
   388   000000                     _SSPBUF	set	4041
   389   000000                     _SSPSTATbits	set	4039
   390   000000                     _SSPCON1bits	set	4038
   391   000000                     _INTCON2bits	set	4081
   392   000000                     _INTCON3bits	set	4080
   393   000000                     _EECON2	set	4007
   394   000000                     _CCPR1H	set	4031
   395   000000                     _CCPR1L	set	4030
   396   000000                     _ADCON1bits	set	4033
   397   000000                     _ADRESL	set	4035
   398   000000                     _ADRESH	set	4036
   399   000000                     _INTCONbits	set	4082
   400   000000                     _TRISD	set	3989
   401   000000                     _TRISC	set	3988
   402   000000                     _PR2	set	4043
   403   000000                     _TRISB	set	3987
   404   000000                     _TRISE	set	3990
   405   000000                     _TRISCbits	set	3988
   406   000000                     _PORTBbits	set	3969
   407   000000                     _PIE1bits	set	3997
   408   000000                     _ADCON2bits	set	4032
   409   000000                     _ADCON0bits	set	4034
   410   000000                     _PORTE	set	3972
   411   000000                     _PORTD	set	3971
   412   000000                     _PORTC	set	3970
   413   000000                     _PORTB	set	3969
   414   000000                     _PORTA	set	3968
   415   000000                     _LATA	set	3977
   416   000000                     _TRISA	set	3986
   417   000000                     _PIE2bits	set	4000
   418   000000                     _CCP2CONbits	set	4026
   419   000000                     _CCP1CONbits	set	4029
   420   000000                     _PIR1bits	set	3998
   421   000000                     _CCPR2L	set	4027
   422   000000                     _EECON1bits	set	4006
   423   000000                     _EEDATA	set	4008
   424   000000                     _EEADR	set	4009
   425   000000                     _EEADRH	set	4010
   426   000000                     _T3CONbits	set	4017
   427   000000                     _PIR2bits	set	4001
   428   000000                     _LATE	set	3981
   429   000000                     _LATD	set	3980
   430   000000                     _LATC	set	3979
   431   000000                     _LATB	set	3978
   432   000000                     _BAUDCONbits	set	4024
   433   001011                     STR_1:
   434   001011  25                 	db	37
   435   001012  69                 	db	105	;'i'
   436   001013  00                 	db	0
   437   001014  00                 	db	0	; dummy byte at the end
   438   000000                     
   439                           ; #config settings
   440                           
   441                           	psect	cinit
   442   0020E4                     __pcinit:
   443                           	callstack 0
   444   0020E4                     start_initialization:
   445                           	callstack 0
   446   0020E4                     __initialization:
   447                           	callstack 0
   448                           
   449                           ; Initialize objects allocated to BANK1 (74 bytes)
   450                           ; load TBLPTR registers with __pidataBANK1
   451   0020E4  0E15               	movlw	low __pidataBANK1
   452   0020E6  6EF6               	movwf	tblptrl,c
   453   0020E8  0E22               	movlw	high __pidataBANK1
   454   0020EA  6EF7               	movwf	tblptrh,c
   455   0020EC  0E00               	movlw	low (__pidataBANK1 shr (0+16))
   456   0020EE  6EF8               	movwf	tblptru,c
   457   0020F0  EE01  F000         	lfsr	0,__pdataBANK1
   458   0020F4  EE10 F04A          	lfsr	1,74
   459   0020F8                     copy_data0:
   460   0020F8  0009               	tblrd		*+
   461   0020FA  CFF5 FFEE          	movff	tablat,postinc0
   462   0020FE  50E5               	movf	postdec1,w,c
   463   002100  50E1               	movf	fsr1l,w,c
   464   002102  E1FA               	bnz	copy_data0
   465                           
   466                           ; Initialize objects allocated to BANK0 (83 bytes)
   467                           ; load TBLPTR registers with __pidataBANK0
   468   002104  0EC2               	movlw	low __pidataBANK0
   469   002106  6EF6               	movwf	tblptrl,c
   470   002108  0E21               	movlw	high __pidataBANK0
   471   00210A  6EF7               	movwf	tblptrh,c
   472   00210C  0E00               	movlw	low (__pidataBANK0 shr (0+16))
   473   00210E  6EF8               	movwf	tblptru,c
   474   002110  EE00  F080         	lfsr	0,__pdataBANK0
   475   002114  EE10 F053          	lfsr	1,83
   476   002118                     copy_data1:
   477   002118  0009               	tblrd		*+
   478   00211A  CFF5 FFEE          	movff	tablat,postinc0
   479   00211E  50E5               	movf	postdec1,w,c
   480   002120  50E1               	movf	fsr1l,w,c
   481   002122  E1FA               	bnz	copy_data1
   482                           
   483                           ; Initialize objects allocated to COMRAM (17 bytes)
   484                           ; load TBLPTR registers with __pidataCOMRAM
   485   002124  0EB2               	movlw	low __pidataCOMRAM
   486   002126  6EF6               	movwf	tblptrl,c
   487   002128  0E23               	movlw	high __pidataCOMRAM
   488   00212A  6EF7               	movwf	tblptrh,c
   489   00212C  0E00               	movlw	low (__pidataCOMRAM shr (0+16))
   490   00212E  6EF8               	movwf	tblptru,c
   491   002130  EE00  F06D         	lfsr	0,__pdataCOMRAM
   492   002134  EE10 F011          	lfsr	1,17
   493   002138                     copy_data2:
   494   002138  0009               	tblrd		*+
   495   00213A  CFF5 FFEE          	movff	tablat,postinc0
   496   00213E  50E5               	movf	postdec1,w,c
   497   002140  50E1               	movf	fsr1l,w,c
   498   002142  E1FA               	bnz	copy_data2
   499                           
   500                           ; Clear objects allocated to BANK0 (42 bytes)
   501   002144  EE00  F0D3         	lfsr	0,__pbssBANK0
   502   002148  0E2A               	movlw	42
   503   00214A                     clear_0:
   504   00214A  6AEE               	clrf	postinc0,c
   505   00214C  06E8               	decf	wreg,f,c
   506   00214E  E1FD               	bnz	clear_0
   507                           
   508                           ; Clear objects allocated to COMRAM (34 bytes)
   509   002150  EE00  F04B         	lfsr	0,__pbssCOMRAM
   510   002154  0E22               	movlw	34
   511   002156                     clear_1:
   512   002156  6AEE               	clrf	postinc0,c
   513   002158  06E8               	decf	wreg,f,c
   514   00215A  E1FD               	bnz	clear_1
   515   00215C                     end_of_initialization:
   516                           	callstack 0
   517   00215C                     __end_of__initialization:
   518                           	callstack 0
   519   00215C  907E               	bcf	int$flags,0,c	;clear compiler interrupt flag (level 1)
   520   00215E  927E               	bcf	int$flags,1,c	;clear compiler interrupt flag (level 2)
   521   002160  0100               	movlb	0
   522   002162  EFB3  F010         	goto	_main	;jump to C main() function
   523                           
   524                           	psect	bssCOMRAM
   525   00004B                     __pbssCOMRAM:
   526                           	callstack 0
   527   00004B                     _timer3_preload:
   528                           	callstack 0
   529   00004B                     	ds	2
   530   00004D                     _timer1_preload:
   531                           	callstack 0
   532   00004D                     	ds	2
   533   00004F                     _timer0_preload:
   534                           	callstack 0
   535   00004F                     	ds	2
   536   000051                     _RB4_InterruptHandler_LOW:
   537                           	callstack 0
   538   000051                     	ds	2
   539   000053                     _RB4_InterruptHandler_HIGH:
   540                           	callstack 0
   541   000053                     	ds	2
   542   000055                     _INT2_InterruptHandler:
   543                           	callstack 0
   544   000055                     	ds	2
   545   000057                     _INT1_InterruptHandler:
   546                           	callstack 0
   547   000057                     	ds	2
   548   000059                     _INT0_InterruptHandler:
   549                           	callstack 0
   550   000059                     	ds	2
   551   00005B                     CCP1_Capture_Mode_Read_Value@F3540:
   552                           	callstack 0
   553   00005B                     	ds	2
   554   00005D                     _CCP2_InterruptHandler:
   555                           	callstack 0
   556   00005D                     	ds	2
   557   00005F                     _CCP1_InterruptHandler:
   558                           	callstack 0
   559   00005F                     	ds	2
   560   000061                     _ADC_InterruptHandler:
   561                           	callstack 0
   562   000061                     	ds	2
   563   000063                     _slave_ack:
   564                           	callstack 0
   565   000063                     	ds	1
   566   000064                     _timer2_preload:
   567                           	callstack 0
   568   000064                     	ds	1
   569   000065                     relay_toggle@F3485:
   570                           	callstack 0
   571   000065                     	ds	1
   572   000066                     relay_turn_off@F3480:
   573                           	callstack 0
   574   000066                     	ds	1
   575   000067                     relay_turn_on@F3475:
   576                           	callstack 0
   577   000067                     	ds	1
   578   000068                     relay_initialize@F3470:
   579                           	callstack 0
   580   000068                     	ds	1
   581   000069                     led_turn_toggle@F3489:
   582                           	callstack 0
   583   000069                     	ds	1
   584   00006A                     led_turn_off@F3484:
   585                           	callstack 0
   586   00006A                     	ds	1
   587   00006B                     led_turn_on@F3479:
   588                           	callstack 0
   589   00006B                     	ds	1
   590   00006C                     led_initialize@F3474:
   591                           	callstack 0
   592   00006C                     	ds	1
   593                           
   594                           	psect	dataCOMRAM
   595   00006D                     __pdataCOMRAM:
   596                           	callstack 0
   597   00006D                     SPI_Slave_Gpio_Cfg@F3548:
   598                           	callstack 0
   599   00006D                     	ds	1
   600   00006E                     SPI_Slave_Gpio_Cfg@F3546:
   601                           	callstack 0
   602   00006E                     	ds	1
   603   00006F                     SPI_Slave_Gpio_Cfg@F3544:
   604                           	callstack 0
   605   00006F                     	ds	1
   606   000070                     SPI_Slave_Gpio_Cfg@F3542:
   607                           	callstack 0
   608   000070                     	ds	1
   609   000071                     SPI_Master_Gpio_Cfg@F3537:
   610                           	callstack 0
   611   000071                     	ds	1
   612   000072                     SPI_Master_Gpio_Cfg@F3535:
   613                           	callstack 0
   614   000072                     	ds	1
   615   000073                     SPI_Master_Gpio_Cfg@F3533:
   616                           	callstack 0
   617   000073                     	ds	1
   618   000074                     _RB7_Flag:
   619                           	callstack 0
   620   000074                     	ds	1
   621   000075                     _RB6_Flag:
   622                           	callstack 0
   623   000075                     	ds	1
   624   000076                     _RB5_Flag:
   625                           	callstack 0
   626   000076                     	ds	1
   627   000077                     _RB4_Flag:
   628                           	callstack 0
   629   000077                     	ds	1
   630   000078                     __relay:
   631                           	callstack 0
   632   000078                     	ds	1
   633   000079                     _led4:
   634                           	callstack 0
   635   000079                     	ds	1
   636   00007A                     _led3:
   637                           	callstack 0
   638   00007A                     	ds	1
   639   00007B                     _led2:
   640                           	callstack 0
   641   00007B                     	ds	1
   642   00007C                     _led1:
   643                           	callstack 0
   644   00007C                     	ds	1
   645   00007D                     __pin_config:
   646                           	callstack 0
   647   00007D                     	ds	1
   648                           
   649                           	psect	bssBANK0
   650   0000D3                     __pbssBANK0:
   651                           	callstack 0
   652   0000D3                     	ds	6
   653   0000D9                     _I2C_Report_Receive_Overflow_InterruptHandle:
   654                           	callstack 0
   655   0000D9                     	ds	2
   656   0000DB                     _I2C_DefaultInterruptHandle:
   657                           	callstack 0
   658   0000DB                     	ds	2
   659   0000DD                     _I2C_Report_Write_Collision_InterruptHandler:
   660                           	callstack 0
   661   0000DD                     	ds	2
   662   0000DF                     _EUSART_OverrunErrorHandler:
   663                           	callstack 0
   664   0000DF                     	ds	2
   665   0000E1                     _EUSART_FramingErrorHandler:
   666                           	callstack 0
   667   0000E1                     	ds	2
   668   0000E3                     _EUSART_RxInterruptHandler:
   669                           	callstack 0
   670   0000E3                     	ds	2
   671   0000E5                     _EUSART_TxInterruptHandler:
   672                           	callstack 0
   673   0000E5                     	ds	2
   674   0000E7                     _TMR3_InterruptHandler:
   675                           	callstack 0
   676   0000E7                     	ds	2
   677   0000E9                     _TMR2_InterruptHandler:
   678                           	callstack 0
   679   0000E9                     	ds	2
   680   0000EB                     _TMR1_InterruptHandler:
   681                           	callstack 0
   682   0000EB                     	ds	2
   683   0000ED                     _TMR0_InterruptHandler:
   684                           	callstack 0
   685   0000ED                     	ds	2
   686   0000EF                     _SPI_InterruptHandler:
   687                           	callstack 0
   688   0000EF                     	ds	2
   689   0000F1                     _RB7_InterruptHandler_LOW:
   690                           	callstack 0
   691   0000F1                     	ds	2
   692   0000F3                     _RB7_InterruptHandler_HIGH:
   693                           	callstack 0
   694   0000F3                     	ds	2
   695   0000F5                     _RB6_InterruptHandler_LOW:
   696                           	callstack 0
   697   0000F5                     	ds	2
   698   0000F7                     _RB6_InterruptHandler_HIGH:
   699                           	callstack 0
   700   0000F7                     	ds	2
   701   0000F9                     _RB5_InterruptHandler_LOW:
   702                           	callstack 0
   703   0000F9                     	ds	2
   704   0000FB                     _RB5_InterruptHandler_HIGH:
   705                           	callstack 0
   706   0000FB                     	ds	2
   707                           
   708                           	psect	dataBANK0
   709   000080                     __pdataBANK0:
   710                           	callstack 0
   711   000080                     _port_registers:
   712                           	callstack 0
   713   000080                     	ds	10
   714   00008A                     _lat_registers:
   715                           	callstack 0
   716   00008A                     	ds	10
   717   000094                     _tris_registers:
   718                           	callstack 0
   719   000094                     	ds	10
   720   00009E                     _cross_bar3:
   721                           	callstack 0
   722   00009E                     	ds	8
   723   0000A6                     _cross_bar2:
   724                           	callstack 0
   725   0000A6                     	ds	8
   726   0000AE                     _cross_bar1:
   727                           	callstack 0
   728   0000AE                     	ds	8
   729   0000B6                     _lcd_1:
   730                           	callstack 0
   731   0000B6                     	ds	6
   732   0000BC                     _seg1:
   733                           	callstack 0
   734   0000BC                     	ds	5
   735   0000C1                     _btn1:
   736                           	callstack 0
   737   0000C1                     	ds	3
   738   0000C4                     _dc_motor_1:
   739                           	callstack 0
   740   0000C4                     	ds	2
   741   0000C6                     _i2c_obj:
   742                           	callstack 0
   743   0000C6                     	ds	13
   744                           
   745                           	psect	dataBANK1
   746   000100                     __pdataBANK1:
   747                           	callstack 0
   748   000100                     _lcd_2:
   749                           	callstack 0
   750   000100                     	ds	10
   751   00010A                     _keypad1:
   752                           	callstack 0
   753   00010A                     	ds	8
   754   000112                     _ball:
   755                           	callstack 0
   756   000112                     	ds	8
   757   00011A                     _goal:
   758                           	callstack 0
   759   00011A                     	ds	8
   760   000122                     _messi:
   761                           	callstack 0
   762   000122                     	ds	8
   763   00012A                     _killer:
   764                           	callstack 0
   765   00012A                     	ds	8
   766   000132                     _zizo_dead:
   767                           	callstack 0
   768   000132                     	ds	8
   769   00013A                     _zizo:
   770                           	callstack 0
   771   00013A                     	ds	8
   772   000142                     _cross_bar4:
   773                           	callstack 0
   774   000142                     	ds	8
   775                           
   776                           	psect	cstackCOMRAM
   777   000001                     __pcstackCOMRAM:
   778                           	callstack 0
   779   000001                     RB4_ISR@RB4_Source:
   780                           	callstack 0
   781   000001                     RB5_ISR@RB5_Source:
   782                           	callstack 0
   783   000001                     RB6_ISR@RB6_Source:
   784                           	callstack 0
   785   000001                     RB7_ISR@RB7_Source:
   786                           	callstack 0
   787                           
   788                           ; 1 bytes @ 0x0
   789   000001                     	ds	1
   790   000002                     ?___xxtofl:
   791                           	callstack 0
   792   000002                     MSSP_I2C_Master_Send_Start@i2c_obj:
   793                           	callstack 0
   794   000002                     MSSP_I2C_Master_Send_Stop@i2c_obj:
   795                           	callstack 0
   796   000002                     I2C_Slave_Mode_Configurations@i2c_obj:
   797                           	callstack 0
   798   000002                     MSSP_I2C_Interrupt_Configurations@i2c_obj:
   799                           	callstack 0
   800   000002                     ___xxtofl@val:
   801                           	callstack 0
   802                           
   803                           ; 4 bytes @ 0x1
   804   000002                     	ds	2
   805   000004                     ??_I2C_Slave_Mode_Configurations:
   806   000004                     MSSP_I2C_Master_Send_Start@ret:
   807                           	callstack 0
   808   000004                     MSSP_I2C_Master_Send_Stop@ret:
   809                           	callstack 0
   810                           
   811                           ; 1 bytes @ 0x3
   812   000004                     	ds	2
   813   000006                     ??___xxtofl:
   814                           
   815                           ; 1 bytes @ 0x5
   816   000006                     	ds	4
   817   00000A                     ___xxtofl@sign:
   818                           	callstack 0
   819                           
   820                           ; 1 bytes @ 0x9
   821   00000A                     	ds	1
   822   00000B                     ___xxtofl@exp:
   823                           	callstack 0
   824                           
   825                           ; 1 bytes @ 0xA
   826   00000B                     	ds	1
   827   00000C                     ___xxtofl@arg:
   828                           	callstack 0
   829                           
   830                           ; 4 bytes @ 0xB
   831   00000C                     	ds	4
   832   000010                     ?___fldiv:
   833                           	callstack 0
   834   000010                     ___fldiv@b:
   835                           	callstack 0
   836                           
   837                           ; 4 bytes @ 0xF
   838   000010                     	ds	4
   839   000014                     ___fldiv@a:
   840                           	callstack 0
   841                           
   842                           ; 4 bytes @ 0x13
   843   000014                     	ds	4
   844   000018                     ??___fldiv:
   845                           
   846                           ; 1 bytes @ 0x17
   847   000018                     	ds	4
   848   00001C                     ___fldiv@rem:
   849                           	callstack 0
   850                           
   851                           ; 4 bytes @ 0x1B
   852   00001C                     	ds	4
   853   000020                     ___fldiv@sign:
   854                           	callstack 0
   855                           
   856                           ; 1 bytes @ 0x1F
   857   000020                     	ds	1
   858   000021                     ___fldiv@new_exp:
   859                           	callstack 0
   860                           
   861                           ; 2 bytes @ 0x20
   862   000021                     	ds	2
   863   000023                     ___fldiv@grs:
   864                           	callstack 0
   865                           
   866                           ; 4 bytes @ 0x22
   867   000023                     	ds	4
   868   000027                     ___fldiv@bexp:
   869                           	callstack 0
   870                           
   871                           ; 1 bytes @ 0x26
   872   000027                     	ds	1
   873   000028                     ___fldiv@aexp:
   874                           	callstack 0
   875                           
   876                           ; 1 bytes @ 0x27
   877   000028                     	ds	1
   878   000029                     ?___fladd:
   879                           	callstack 0
   880   000029                     ___fladd@b:
   881                           	callstack 0
   882                           
   883                           ; 4 bytes @ 0x28
   884   000029                     	ds	4
   885   00002D                     ___fladd@a:
   886                           	callstack 0
   887                           
   888                           ; 4 bytes @ 0x2C
   889   00002D                     	ds	4
   890   000031                     ??___fladd:
   891                           
   892                           ; 1 bytes @ 0x30
   893   000031                     	ds	4
   894   000035                     ___fladd@signs:
   895                           	callstack 0
   896                           
   897                           ; 1 bytes @ 0x34
   898   000035                     	ds	1
   899   000036                     ___fladd@aexp:
   900                           	callstack 0
   901                           
   902                           ; 1 bytes @ 0x35
   903   000036                     	ds	1
   904   000037                     ___fladd@bexp:
   905                           	callstack 0
   906                           
   907                           ; 1 bytes @ 0x36
   908   000037                     	ds	1
   909   000038                     ___fladd@grs:
   910                           	callstack 0
   911                           
   912                           ; 1 bytes @ 0x37
   913   000038                     	ds	1
   914   000039                     ?___fltol:
   915                           	callstack 0
   916   000039                     ___fltol@f1:
   917                           	callstack 0
   918                           
   919                           ; 4 bytes @ 0x38
   920   000039                     	ds	4
   921   00003D                     ??___fltol:
   922                           
   923                           ; 1 bytes @ 0x3C
   924   00003D                     	ds	4
   925   000041                     ___fltol@sign1:
   926                           	callstack 0
   927                           
   928                           ; 1 bytes @ 0x40
   929   000041                     	ds	1
   930   000042                     ___fltol@exp1:
   931                           	callstack 0
   932                           
   933                           ; 1 bytes @ 0x41
   934   000042                     	ds	1
   935   000043                     I2C_Master_Mode_Clock_Configurations@i2c_obj:
   936                           	callstack 0
   937                           
   938                           ; 2 bytes @ 0x42
   939   000043                     	ds	2
   940   000045                     ??_I2C_Master_Mode_Clock_Configurations:
   941                           
   942                           ; 1 bytes @ 0x44
   943   000045                     	ds	2
   944   000047                     MSSP_I2C_Init@i2c_obj:
   945                           	callstack 0
   946                           
   947                           ; 2 bytes @ 0x46
   948   000047                     	ds	2
   949   000049                     ??_main:
   950                           
   951                           ; 1 bytes @ 0x48
   952   000049                     	ds	2
   953                           
   954 ;;
   955 ;;Main: autosize = 0, tempsize = 2, incstack = 0, save=0
   956 ;;
   957 ;; *************** function _main *****************
   958 ;; Defined at:
   959 ;;		line 26 in file "application.c"
   960 ;; Parameters:    Size  Location     Type
   961 ;;		None
   962 ;; Auto vars:     Size  Location     Type
   963 ;;  ret             1    0        unsigned char 
   964 ;; Return value:  Size  Location     Type
   965 ;;                  2  1710[None  ] int 
   966 ;; Registers used:
   967 ;;		wreg, fsr2l, fsr2h, status,2, status,0, cstack
   968 ;; Tracked objects:
   969 ;;		On entry : 0/0
   970 ;;		On exit  : 0/0
   971 ;;		Unchanged: 0/0
   972 ;; Data sizes:     COMRAM   BANK0   BANK1   BANK2   BANK3   BANK4   BANK5   BANK6   BANK7   BANK8   BANK9  BANK10  BANK1
      +1  BANK12  BANK13  BANK14  BANK15
   973 ;;      Params:         0       0       0       0       0       0       0       0       0       0       0       0       
      +0       0       0       0       0
   974 ;;      Locals:         0       0       0       0       0       0       0       0       0       0       0       0       
      +0       0       0       0       0
   975 ;;      Temps:          2       0       0       0       0       0       0       0       0       0       0       0       
      +0       0       0       0       0
   976 ;;      Totals:         2       0       0       0       0       0       0       0       0       0       0       0       
      +0       0       0       0       0
   977 ;;Total ram usage:        2 bytes
   978 ;; Hardware stack levels required when called: 5
   979 ;; This function calls:
   980 ;;		_MSSP_I2C_Init
   981 ;;		_MSSP_I2C_Master_Send_Start
   982 ;;		_MSSP_I2C_Master_Send_Stop
   983 ;;		_application_intialize
   984 ;; This function is called by:
   985 ;;		Startup code after reset
   986 ;; This function uses a non-reentrant model
   987 ;;
   988                           
   989                           	psect	text0
   990   002166                     __ptext0:
   991                           	callstack 0
   992   002166                     _main:
   993                           	callstack 26
   994   002166                     
   995                           ;application.c: 28:     application_intialize();
   996   002166  ECF8  F011         	call	_application_intialize	;wreg free
   997   00216A                     
   998                           ;application.c: 29:     MSSP_I2C_Init(&i2c_obj);
   999   00216A  0EC6               	movlw	low _i2c_obj
  1000   00216C  6E47               	movwf	MSSP_I2C_Init@i2c_obj^0,c
  1001   00216E  0E00               	movlw	high _i2c_obj
  1002   002170  6E48               	movwf	(MSSP_I2C_Init@i2c_obj+1)^0,c
  1003   002172  ECFD  F00E         	call	_MSSP_I2C_Init	;wreg free
  1004   002176                     l8030:
  1005   002176  0EC6               	movlw	low _i2c_obj
  1006   002178  6E02               	movwf	MSSP_I2C_Master_Send_Start@i2c_obj^0,c
  1007   00217A  0E00               	movlw	high _i2c_obj
  1008   00217C  6E03               	movwf	(MSSP_I2C_Master_Send_Start@i2c_obj+1)^0,c
  1009   00217E  EC76  F011         	call	_MSSP_I2C_Master_Send_Start	;wreg free
  1010   002182                     
  1011                           ;application.c: 34:         _delay((unsigned long)((1000)*(8000000UL/4000.0)));
  1012   002182  0E0B               	movlw	11
  1013   002184  6E4A               	movwf	(??_main+1)^0,c
  1014   002186  0E26               	movlw	38
  1015   002188  6E49               	movwf	??_main^0,c
  1016   00218A  0E5E               	movlw	94
  1017   00218C                     u7497:
  1018   00218C  2EE8               	decfsz	wreg,f,c
  1019   00218E  D7FE               	bra	u7497
  1020   002190  2E49               	decfsz	??_main^0,f,c
  1021   002192  D7FC               	bra	u7497
  1022   002194  2E4A               	decfsz	(??_main+1)^0,f,c
  1023   002196  D7FA               	bra	u7497
  1024   002198  0EC6               	movlw	low _i2c_obj
  1025   00219A  6E02               	movwf	MSSP_I2C_Master_Send_Stop@i2c_obj^0,c
  1026   00219C  0E00               	movlw	high _i2c_obj
  1027   00219E  6E03               	movwf	(MSSP_I2C_Master_Send_Stop@i2c_obj+1)^0,c
  1028   0021A0  EC55  F011         	call	_MSSP_I2C_Master_Send_Stop	;wreg free
  1029   0021A4                     
  1030                           ;application.c: 37:         _delay((unsigned long)((1000)*(8000000UL/4000.0)));
  1031   0021A4  0E0B               	movlw	11
  1032   0021A6  6E4A               	movwf	(??_main+1)^0,c
  1033   0021A8  0E26               	movlw	38
  1034   0021AA  6E49               	movwf	??_main^0,c
  1035   0021AC  0E5E               	movlw	94
  1036   0021AE                     u7507:
  1037   0021AE  2EE8               	decfsz	wreg,f,c
  1038   0021B0  D7FE               	bra	u7507
  1039   0021B2  2E49               	decfsz	??_main^0,f,c
  1040   0021B4  D7FC               	bra	u7507
  1041   0021B6  2E4A               	decfsz	(??_main+1)^0,f,c
  1042   0021B8  D7FA               	bra	u7507
  1043   0021BA  EFBB  F010         	goto	l8030
  1044   0021BE  EF07  F000         	goto	start
  1045   0021C2                     __end_of_main:
  1046                           	callstack 0
  1047                           
  1048 ;; *************** function _application_intialize *****************
  1049 ;; Defined at:
  1050 ;;		line 42 in file "application.c"
  1051 ;; Parameters:    Size  Location     Type
  1052 ;;		None
  1053 ;; Auto vars:     Size  Location     Type
  1054 ;;  ret             1    0        unsigned char 
  1055 ;; Return value:  Size  Location     Type
  1056 ;;                  1    wreg      void 
  1057 ;; Registers used:
  1058 ;;		wreg, status,2, cstack
  1059 ;; Tracked objects:
  1060 ;;		On entry : 0/0
  1061 ;;		On exit  : 0/0
  1062 ;;		Unchanged: 0/0
  1063 ;; Data sizes:     COMRAM   BANK0   BANK1   BANK2   BANK3   BANK4   BANK5   BANK6   BANK7   BANK8   BANK9  BANK10  BANK1
      +1  BANK12  BANK13  BANK14  BANK15
  1064 ;;      Params:         0       0       0       0       0       0       0       0       0       0       0       0       
      +0       0       0       0       0
  1065 ;;      Locals:         0       0       0       0       0       0       0       0       0       0       0       0       
      +0       0       0       0       0
  1066 ;;      Temps:          0       0       0       0       0       0       0       0       0       0       0       0       
      +0       0       0       0       0
  1067 ;;      Totals:         0       0       0       0       0       0       0       0       0       0       0       0       
      +0       0       0       0       0
  1068 ;;Total ram usage:        0 bytes
  1069 ;; Hardware stack levels used: 1
  1070 ;; Hardware stack levels required when called: 3
  1071 ;; This function calls:
  1072 ;;		_ecu_layer_intialize
  1073 ;; This function is called by:
  1074 ;;		_main
  1075 ;; This function uses a non-reentrant model
  1076 ;;
  1077                           
  1078                           	psect	text1
  1079   0023F0                     __ptext1:
  1080                           	callstack 0
  1081   0023F0                     _application_intialize:
  1082                           	callstack 27
  1083   0023F0                     
  1084                           ;application.c: 44:     ecu_layer_intialize();
  1085   0023F0  EC0C  F012         	call	_ecu_layer_intialize	;wreg free
  1086   0023F4  0012               	return		;funcret
  1087   0023F6                     __end_of_application_intialize:
  1088                           	callstack 0
  1089                           
  1090 ;; *************** function _ecu_layer_intialize *****************
  1091 ;; Defined at:
  1092 ;;		line 178 in file "ECU_Layer/ecu_layer_init.c"
  1093 ;; Parameters:    Size  Location     Type
  1094 ;;		None
  1095 ;; Auto vars:     Size  Location     Type
  1096 ;;  ret             1    0        unsigned char 
  1097 ;; Return value:  Size  Location     Type
  1098 ;;                  1    wreg      void 
  1099 ;; Registers used:
  1100 ;;		wreg, status,2
  1101 ;; Tracked objects:
  1102 ;;		On entry : 0/0
  1103 ;;		On exit  : 0/0
  1104 ;;		Unchanged: 0/0
  1105 ;; Data sizes:     COMRAM   BANK0   BANK1   BANK2   BANK3   BANK4   BANK5   BANK6   BANK7   BANK8   BANK9  BANK10  BANK1
      +1  BANK12  BANK13  BANK14  BANK15
  1106 ;;      Params:         0       0       0       0       0       0       0       0       0       0       0       0       
      +0       0       0       0       0
  1107 ;;      Locals:         0       0       0       0       0       0       0       0       0       0       0       0       
      +0       0       0       0       0
  1108 ;;      Temps:          0       0       0       0       0       0       0       0       0       0       0       0       
      +0       0       0       0       0
  1109 ;;      Totals:         0       0       0       0       0       0       0       0       0       0       0       0       
      +0       0       0       0       0
  1110 ;;Total ram usage:        0 bytes
  1111 ;; Hardware stack levels used: 1
  1112 ;; Hardware stack levels required when called: 2
  1113 ;; This function calls:
  1114 ;;		Nothing
  1115 ;; This function is called by:
  1116 ;;		_application_intialize
  1117 ;; This function uses a non-reentrant model
  1118 ;;
  1119                           
  1120                           	psect	text2
  1121   002418                     __ptext2:
  1122                           	callstack 0
  1123   002418                     _ecu_layer_intialize:
  1124                           	callstack 27
  1125   002418  0012               	return		;funcret
  1126   00241A                     __end_of_ecu_layer_intialize:
  1127                           	callstack 0
  1128                           
  1129 ;; *************** function _MSSP_I2C_Master_Send_Stop *****************
  1130 ;; Defined at:
  1131 ;;		line 142 in file "MCAL_Layer/I2C/hal_i2c.c"
  1132 ;; Parameters:    Size  Location     Type
  1133 ;;  i2c_obj         2    1[COMRAM] PTR const struct .
  1134 ;;		 -> i2c_obj(13), 
  1135 ;; Auto vars:     Size  Location     Type
  1136 ;;  ret             1    3[COMRAM] unsigned char 
  1137 ;; Return value:  Size  Location     Type
  1138 ;;                  1    wreg      unsigned char 
  1139 ;; Registers used:
  1140 ;;		wreg, status,2, status,0
  1141 ;; Tracked objects:
  1142 ;;		On entry : 0/0
  1143 ;;		On exit  : 0/0
  1144 ;;		Unchanged: 0/0
  1145 ;; Data sizes:     COMRAM   BANK0   BANK1   BANK2   BANK3   BANK4   BANK5   BANK6   BANK7   BANK8   BANK9  BANK10  BANK1
      +1  BANK12  BANK13  BANK14  BANK15
  1146 ;;      Params:         2       0       0       0       0       0       0       0       0       0       0       0       
      +0       0       0       0       0
  1147 ;;      Locals:         1       0       0       0       0       0       0       0       0       0       0       0       
      +0       0       0       0       0
  1148 ;;      Temps:          0       0       0       0       0       0       0       0       0       0       0       0       
      +0       0       0       0       0
  1149 ;;      Totals:         3       0       0       0       0       0       0       0       0       0       0       0       
      +0       0       0       0       0
  1150 ;;Total ram usage:        3 bytes
  1151 ;; Hardware stack levels used: 1
  1152 ;; Hardware stack levels required when called: 2
  1153 ;; This function calls:
  1154 ;;		Nothing
  1155 ;; This function is called by:
  1156 ;;		_main
  1157 ;; This function uses a non-reentrant model
  1158 ;;
  1159                           
  1160                           	psect	text3
  1161   0022AA                     __ptext3:
  1162                           	callstack 0
  1163   0022AA                     _MSSP_I2C_Master_Send_Stop:
  1164                           	callstack 28
  1165   0022AA                     
  1166                           ;MCAL_Layer/I2C/hal_i2c.c: 144:     if(((void*)0) == i2c_obj){
  1167   0022AA  5002               	movf	MSSP_I2C_Master_Send_Stop@i2c_obj^0,w,c
  1168   0022AC  1003               	iorwf	(MSSP_I2C_Master_Send_Stop@i2c_obj+1)^0,w,c
  1169   0022AE  A4D8               	btfss	status,2,c
  1170   0022B0  EF5C  F011         	goto	u5511
  1171   0022B4  EF5E  F011         	goto	u5510
  1172   0022B8                     u5511:
  1173   0022B8  EF62  F011         	goto	l1800
  1174   0022BC                     u5510:
  1175   0022BC                     l6676:
  1176                           
  1177                           ;MCAL_Layer/I2C/hal_i2c.c: 145:         ret = (Std_ReturnType)0x00;
  1178   0022BC  0E00               	movlw	0
  1179   0022BE  6E04               	movwf	MSSP_I2C_Master_Send_Stop@ret^0,c
  1180                           
  1181                           ;MCAL_Layer/I2C/hal_i2c.c: 146:     }
  1182   0022C0  EF74  F011         	goto	l1801
  1183   0022C4                     l1800:
  1184                           
  1185                           ;MCAL_Layer/I2C/hal_i2c.c: 149:         SSPCON2bits.PEN = 1;
  1186   0022C4  84C5               	bsf	197,2,c	;volatile
  1187   0022C6                     l1802:
  1188   0022C6  B4C5               	btfsc	197,2,c	;volatile
  1189   0022C8  EF68  F011         	goto	u5521
  1190   0022CC  EF6A  F011         	goto	u5520
  1191   0022D0                     u5521:
  1192   0022D0  EF63  F011         	goto	l1802
  1193   0022D4                     u5520:
  1194   0022D4                     
  1195                           ;MCAL_Layer/I2C/hal_i2c.c: 153:         PIR1bits.SSPIF = 0;
  1196   0022D4  969E               	bcf	158,3,c	;volatile
  1197                           
  1198                           ;MCAL_Layer/I2C/hal_i2c.c: 155:         if(1 == SSPSTATbits.P){
  1199   0022D6  A8C7               	btfss	199,4,c	;volatile
  1200   0022D8  EF70  F011         	goto	u5531
  1201   0022DC  EF72  F011         	goto	u5530
  1202   0022E0                     u5531:
  1203   0022E0  EF5E  F011         	goto	l6676
  1204   0022E4                     u5530:
  1205   0022E4                     
  1206                           ;MCAL_Layer/I2C/hal_i2c.c: 156:             ret = (Std_ReturnType)0x01;
  1207   0022E4  0E01               	movlw	1
  1208   0022E6  6E04               	movwf	MSSP_I2C_Master_Send_Stop@ret^0,c
  1209   0022E8                     l1801:
  1210                           
  1211                           ;MCAL_Layer/I2C/hal_i2c.c: 162:     return ret;
  1212   0022E8  5004               	movf	MSSP_I2C_Master_Send_Stop@ret^0,w,c
  1213   0022EA  0012               	return		;funcret
  1214   0022EC                     __end_of_MSSP_I2C_Master_Send_Stop:
  1215                           	callstack 0
  1216                           
  1217 ;; *************** function _MSSP_I2C_Master_Send_Start *****************
  1218 ;; Defined at:
  1219 ;;		line 102 in file "MCAL_Layer/I2C/hal_i2c.c"
  1220 ;; Parameters:    Size  Location     Type
  1221 ;;  i2c_obj         2    1[COMRAM] PTR const struct .
  1222 ;;		 -> i2c_obj(13), 
  1223 ;; Auto vars:     Size  Location     Type
  1224 ;;  ret             1    3[COMRAM] unsigned char 
  1225 ;; Return value:  Size  Location     Type
  1226 ;;                  1    wreg      unsigned char 
  1227 ;; Registers used:
  1228 ;;		wreg, status,2, status,0
  1229 ;; Tracked objects:
  1230 ;;		On entry : 0/0
  1231 ;;		On exit  : 0/0
  1232 ;;		Unchanged: 0/0
  1233 ;; Data sizes:     COMRAM   BANK0   BANK1   BANK2   BANK3   BANK4   BANK5   BANK6   BANK7   BANK8   BANK9  BANK10  BANK1
      +1  BANK12  BANK13  BANK14  BANK15
  1234 ;;      Params:         2       0       0       0       0       0       0       0       0       0       0       0       
      +0       0       0       0       0
  1235 ;;      Locals:         1       0       0       0       0       0       0       0       0       0       0       0       
      +0       0       0       0       0
  1236 ;;      Temps:          0       0       0       0       0       0       0       0       0       0       0       0       
      +0       0       0       0       0
  1237 ;;      Totals:         3       0       0       0       0       0       0       0       0       0       0       0       
      +0       0       0       0       0
  1238 ;;Total ram usage:        3 bytes
  1239 ;; Hardware stack levels used: 1
  1240 ;; Hardware stack levels required when called: 2
  1241 ;; This function calls:
  1242 ;;		Nothing
  1243 ;; This function is called by:
  1244 ;;		_main
  1245 ;; This function uses a non-reentrant model
  1246 ;;
  1247                           
  1248                           	psect	text4
  1249   0022EC                     __ptext4:
  1250                           	callstack 0
  1251   0022EC                     _MSSP_I2C_Master_Send_Start:
  1252                           	callstack 28
  1253   0022EC                     
  1254                           ;MCAL_Layer/I2C/hal_i2c.c: 104:     if(((void*)0) == i2c_obj){
  1255   0022EC  5002               	movf	MSSP_I2C_Master_Send_Start@i2c_obj^0,w,c
  1256   0022EE  1003               	iorwf	(MSSP_I2C_Master_Send_Start@i2c_obj+1)^0,w,c
  1257   0022F0  A4D8               	btfss	status,2,c
  1258   0022F2  EF7D  F011         	goto	u5481
  1259   0022F6  EF7F  F011         	goto	u5480
  1260   0022FA                     u5481:
  1261   0022FA  EF83  F011         	goto	l1782
  1262   0022FE                     u5480:
  1263   0022FE                     l6664:
  1264                           
  1265                           ;MCAL_Layer/I2C/hal_i2c.c: 105:         ret = (Std_ReturnType)0x00;
  1266   0022FE  0E00               	movlw	0
  1267   002300  6E04               	movwf	MSSP_I2C_Master_Send_Start@ret^0,c
  1268                           
  1269                           ;MCAL_Layer/I2C/hal_i2c.c: 106:     }
  1270   002302  EF95  F011         	goto	l1783
  1271   002306                     l1782:
  1272                           
  1273                           ;MCAL_Layer/I2C/hal_i2c.c: 109:         SSPCON2bits.SEN = 1;
  1274   002306  80C5               	bsf	197,0,c	;volatile
  1275   002308                     l1784:
  1276   002308  B0C5               	btfsc	197,0,c	;volatile
  1277   00230A  EF89  F011         	goto	u5491
  1278   00230E  EF8B  F011         	goto	u5490
  1279   002312                     u5491:
  1280   002312  EF84  F011         	goto	l1784
  1281   002316                     u5490:
  1282   002316                     
  1283                           ;MCAL_Layer/I2C/hal_i2c.c: 113:         PIR1bits.SSPIF = 0;
  1284   002316  969E               	bcf	158,3,c	;volatile
  1285                           
  1286                           ;MCAL_Layer/I2C/hal_i2c.c: 115:         if(1 == SSPSTATbits.S){
  1287   002318  A6C7               	btfss	199,3,c	;volatile
  1288   00231A  EF91  F011         	goto	u5501
  1289   00231E  EF93  F011         	goto	u5500
  1290   002322                     u5501:
  1291   002322  EF7F  F011         	goto	l6664
  1292   002326                     u5500:
  1293   002326                     
  1294                           ;MCAL_Layer/I2C/hal_i2c.c: 116:             ret = (Std_ReturnType)0x01;
  1295   002326  0E01               	movlw	1
  1296   002328  6E04               	movwf	MSSP_I2C_Master_Send_Start@ret^0,c
  1297   00232A                     l1783:
  1298                           
  1299                           ;MCAL_Layer/I2C/hal_i2c.c: 122:     return ret;
  1300   00232A  5004               	movf	MSSP_I2C_Master_Send_Start@ret^0,w,c
  1301   00232C  0012               	return		;funcret
  1302   00232E                     __end_of_MSSP_I2C_Master_Send_Start:
  1303                           	callstack 0
  1304                           
  1305 ;; *************** function _MSSP_I2C_Init *****************
  1306 ;; Defined at:
  1307 ;;		line 21 in file "MCAL_Layer/I2C/hal_i2c.c"
  1308 ;; Parameters:    Size  Location     Type
  1309 ;;  i2c_obj         2   70[COMRAM] PTR const struct .
  1310 ;;		 -> i2c_obj(13), 
  1311 ;; Auto vars:     Size  Location     Type
  1312 ;;  ret             1    0        unsigned char 
  1313 ;; Return value:  Size  Location     Type
  1314 ;;                  1    wreg      unsigned char 
  1315 ;; Registers used:
  1316 ;;		wreg, fsr2l, fsr2h, status,2, status,0, cstack
  1317 ;; Tracked objects:
  1318 ;;		On entry : 0/0
  1319 ;;		On exit  : 0/0
  1320 ;;		Unchanged: 0/0
  1321 ;; Data sizes:     COMRAM   BANK0   BANK1   BANK2   BANK3   BANK4   BANK5   BANK6   BANK7   BANK8   BANK9  BANK10  BANK1
      +1  BANK12  BANK13  BANK14  BANK15
  1322 ;;      Params:         2       0       0       0       0       0       0       0       0       0       0       0       
      +0       0       0       0       0
  1323 ;;      Locals:         0       0       0       0       0       0       0       0       0       0       0       0       
      +0       0       0       0       0
  1324 ;;      Temps:          0       0       0       0       0       0       0       0       0       0       0       0       
      +0       0       0       0       0
  1325 ;;      Totals:         2       0       0       0       0       0       0       0       0       0       0       0       
      +0       0       0       0       0
  1326 ;;Total ram usage:        2 bytes
  1327 ;; Hardware stack levels used: 1
  1328 ;; Hardware stack levels required when called: 4
  1329 ;; This function calls:
  1330 ;;		_I2C_Master_Mode_Clock_Configurations
  1331 ;;		_I2C_Slave_Mode_Configurations
  1332 ;;		_MSSP_I2C_Interrupt_Configurations
  1333 ;;		_MSSP_I2C_Mode_GPIO_CFG
  1334 ;; This function is called by:
  1335 ;;		_main
  1336 ;; This function uses a non-reentrant model
  1337 ;;
  1338                           
  1339                           	psect	text5
  1340   001DFA                     __ptext5:
  1341                           	callstack 0
  1342   001DFA                     _MSSP_I2C_Init:
  1343                           	callstack 26
  1344   001DFA                     
  1345                           ;MCAL_Layer/I2C/hal_i2c.c: 23:     if(((void*)0) == i2c_obj){
  1346   001DFA  5047               	movf	MSSP_I2C_Init@i2c_obj^0,w,c
  1347   001DFC  1048               	iorwf	(MSSP_I2C_Init@i2c_obj+1)^0,w,c
  1348   001DFE  A4D8               	btfss	status,2,c
  1349   001E00  EF04  F00F         	goto	u5391
  1350   001E04  EF06  F00F         	goto	u5390
  1351   001E08                     u5391:
  1352   001E08  EF08  F00F         	goto	l1756
  1353   001E0C                     u5390:
  1354   001E0C                     
  1355                           ;MCAL_Layer/I2C/hal_i2c.c: 25:     }
  1356   001E0C  EF9F  F00F         	goto	l1774
  1357   001E10                     l1756:
  1358                           
  1359                           ;MCAL_Layer/I2C/hal_i2c.c: 28:         (SSPCON1bits.SSPEN = 0);
  1360   001E10  9AC6               	bcf	198,5,c	;volatile
  1361   001E12                     
  1362                           ;MCAL_Layer/I2C/hal_i2c.c: 30:         if(1 == i2c_obj->i2c_cfg.i2c_mode){
  1363   001E12  EE20 F004          	lfsr	2,4
  1364   001E16  5047               	movf	MSSP_I2C_Init@i2c_obj^0,w,c
  1365   001E18  26D9               	addwf	fsr2l,f,c
  1366   001E1A  5048               	movf	(MSSP_I2C_Init@i2c_obj+1)^0,w,c
  1367   001E1C  22DA               	addwfc	fsr2h,f,c
  1368   001E1E  A0DF               	btfss	indf2,0,c
  1369   001E20  EF14  F00F         	goto	u5401
  1370   001E24  EF16  F00F         	goto	u5400
  1371   001E28                     u5401:
  1372   001E28  EF1E  F00F         	goto	l6620
  1373   001E2C                     u5400:
  1374   001E2C                     
  1375                           ;MCAL_Layer/I2C/hal_i2c.c: 32:             I2C_Master_Mode_Clock_Configurations(i2c_obj)
      +                          ;
  1376   001E2C  C047  F043         	movff	MSSP_I2C_Init@i2c_obj,I2C_Master_Mode_Clock_Configurations@i2c_obj
  1377   001E30  C048  F044         	movff	MSSP_I2C_Init@i2c_obj+1,I2C_Master_Mode_Clock_Configurations@i2c_obj+1
  1378   001E34  EC23  F010         	call	_I2C_Master_Mode_Clock_Configurations	;wreg free
  1379                           
  1380                           ;MCAL_Layer/I2C/hal_i2c.c: 33:         }
  1381   001E38  EF5A  F00F         	goto	l6634
  1382   001E3C                     l6620:
  1383   001E3C  EE20 F004          	lfsr	2,4
  1384   001E40  5047               	movf	MSSP_I2C_Init@i2c_obj^0,w,c
  1385   001E42  26D9               	addwf	fsr2l,f,c
  1386   001E44  5048               	movf	(MSSP_I2C_Init@i2c_obj+1)^0,w,c
  1387   001E46  22DA               	addwfc	fsr2h,f,c
  1388   001E48  B0DF               	btfsc	indf2,0,c
  1389   001E4A  EF29  F00F         	goto	u5411
  1390   001E4E  EF2B  F00F         	goto	u5410
  1391   001E52                     u5411:
  1392   001E52  EF5A  F00F         	goto	l6634
  1393   001E56                     u5410:
  1394   001E56                     
  1395                           ;MCAL_Layer/I2C/hal_i2c.c: 36:             if(1 == i2c_obj->i2c_cfg.i2c_general_call){
  1396   001E56  EE20 F004          	lfsr	2,4
  1397   001E5A  5047               	movf	MSSP_I2C_Init@i2c_obj^0,w,c
  1398   001E5C  26D9               	addwf	fsr2l,f,c
  1399   001E5E  5048               	movf	(MSSP_I2C_Init@i2c_obj+1)^0,w,c
  1400   001E60  22DA               	addwfc	fsr2h,f,c
  1401   001E62  A6DF               	btfss	indf2,3,c
  1402   001E64  EF36  F00F         	goto	u5421
  1403   001E68  EF38  F00F         	goto	u5420
  1404   001E6C                     u5421:
  1405   001E6C  EF3B  F00F         	goto	l6626
  1406   001E70                     u5420:
  1407   001E70                     
  1408                           ;MCAL_Layer/I2C/hal_i2c.c: 37:                 (SSPCON2bits.GCEN = 1);
  1409   001E70  8EC5               	bsf	197,7,c	;volatile
  1410                           
  1411                           ;MCAL_Layer/I2C/hal_i2c.c: 38:             }
  1412   001E72  EF49  F00F         	goto	l1762
  1413   001E76                     l6626:
  1414   001E76  EE20 F004          	lfsr	2,4
  1415   001E7A  5047               	movf	MSSP_I2C_Init@i2c_obj^0,w,c
  1416   001E7C  26D9               	addwf	fsr2l,f,c
  1417   001E7E  5048               	movf	(MSSP_I2C_Init@i2c_obj+1)^0,w,c
  1418   001E80  22DA               	addwfc	fsr2h,f,c
  1419   001E82  B6DF               	btfsc	indf2,3,c
  1420   001E84  EF46  F00F         	goto	u5431
  1421   001E88  EF48  F00F         	goto	u5430
  1422   001E8C                     u5431:
  1423   001E8C  EF49  F00F         	goto	l1762
  1424   001E90                     u5430:
  1425   001E90                     
  1426                           ;MCAL_Layer/I2C/hal_i2c.c: 40:                 (SSPCON2bits.GCEN = 0);
  1427   001E90  9EC5               	bcf	197,7,c	;volatile
  1428   001E92                     l1762:
  1429                           
  1430                           ;MCAL_Layer/I2C/hal_i2c.c: 44:             SSPCON1bits.WCOL = 0;
  1431   001E92  9EC6               	bcf	198,7,c	;volatile
  1432                           
  1433                           ;MCAL_Layer/I2C/hal_i2c.c: 46:             SSPCON1bits.SSPOV = 0;
  1434   001E94  9CC6               	bcf	198,6,c	;volatile
  1435                           
  1436                           ;MCAL_Layer/I2C/hal_i2c.c: 48:             SSPCON1bits.CKP = 1;
  1437   001E96  88C6               	bsf	198,4,c	;volatile
  1438   001E98                     
  1439                           ;MCAL_Layer/I2C/hal_i2c.c: 50:             SSPADD = i2c_obj->i2c_cfg.i2c_slave_address;
  1440   001E98  EE20 F003          	lfsr	2,3
  1441   001E9C  5047               	movf	MSSP_I2C_Init@i2c_obj^0,w,c
  1442   001E9E  26D9               	addwf	fsr2l,f,c
  1443   001EA0  5048               	movf	(MSSP_I2C_Init@i2c_obj+1)^0,w,c
  1444   001EA2  22DA               	addwfc	fsr2h,f,c
  1445   001EA4  50DF               	movf	indf2,w,c
  1446   001EA6  6EC8               	movwf	200,c	;volatile
  1447   001EA8                     
  1448                           ;MCAL_Layer/I2C/hal_i2c.c: 52:             I2C_Slave_Mode_Configurations(i2c_obj);
  1449   001EA8  C047  F002         	movff	MSSP_I2C_Init@i2c_obj,I2C_Slave_Mode_Configurations@i2c_obj
  1450   001EAC  C048  F003         	movff	MSSP_I2C_Init@i2c_obj+1,I2C_Slave_Mode_Configurations@i2c_obj+1
  1451   001EB0  EC97  F011         	call	_I2C_Slave_Mode_Configurations	;wreg free
  1452   001EB4                     l6634:
  1453                           
  1454                           ;MCAL_Layer/I2C/hal_i2c.c: 56:         MSSP_I2C_Mode_GPIO_CFG();
  1455   001EB4  ECFB  F011         	call	_MSSP_I2C_Mode_GPIO_CFG	;wreg free
  1456   001EB8                     
  1457                           ;MCAL_Layer/I2C/hal_i2c.c: 58:         if(1 == i2c_obj->i2c_cfg.i2c_slew_rate){
  1458   001EB8  EE20 F004          	lfsr	2,4
  1459   001EBC  5047               	movf	MSSP_I2C_Init@i2c_obj^0,w,c
  1460   001EBE  26D9               	addwf	fsr2l,f,c
  1461   001EC0  5048               	movf	(MSSP_I2C_Init@i2c_obj+1)^0,w,c
  1462   001EC2  22DA               	addwfc	fsr2h,f,c
  1463   001EC4  A2DF               	btfss	indf2,1,c
  1464   001EC6  EF67  F00F         	goto	u5441
  1465   001ECA  EF69  F00F         	goto	u5440
  1466   001ECE                     u5441:
  1467   001ECE  EF6C  F00F         	goto	l6640
  1468   001ED2                     u5440:
  1469   001ED2                     
  1470                           ;MCAL_Layer/I2C/hal_i2c.c: 59:             (SSPSTATbits.SMP = 1);
  1471   001ED2  8EC7               	bsf	199,7,c	;volatile
  1472                           
  1473                           ;MCAL_Layer/I2C/hal_i2c.c: 60:         }
  1474   001ED4  EF7A  F00F         	goto	l6644
  1475   001ED8                     l6640:
  1476   001ED8  EE20 F004          	lfsr	2,4
  1477   001EDC  5047               	movf	MSSP_I2C_Init@i2c_obj^0,w,c
  1478   001EDE  26D9               	addwf	fsr2l,f,c
  1479   001EE0  5048               	movf	(MSSP_I2C_Init@i2c_obj+1)^0,w,c
  1480   001EE2  22DA               	addwfc	fsr2h,f,c
  1481   001EE4  B2DF               	btfsc	indf2,1,c
  1482   001EE6  EF77  F00F         	goto	u5451
  1483   001EEA  EF79  F00F         	goto	u5450
  1484   001EEE                     u5451:
  1485   001EEE  EF7A  F00F         	goto	l6644
  1486   001EF2                     u5450:
  1487   001EF2                     
  1488                           ;MCAL_Layer/I2C/hal_i2c.c: 62:             (SSPSTATbits.SMP = 0);
  1489   001EF2  9EC7               	bcf	199,7,c	;volatile
  1490   001EF4                     l6644:
  1491                           
  1492                           ;MCAL_Layer/I2C/hal_i2c.c: 66:         if(1 == i2c_obj->i2c_cfg.i2c_SMBus_control){
  1493   001EF4  EE20 F004          	lfsr	2,4
  1494   001EF8  5047               	movf	MSSP_I2C_Init@i2c_obj^0,w,c
  1495   001EFA  26D9               	addwf	fsr2l,f,c
  1496   001EFC  5048               	movf	(MSSP_I2C_Init@i2c_obj+1)^0,w,c
  1497   001EFE  22DA               	addwfc	fsr2h,f,c
  1498   001F00  A4DF               	btfss	indf2,2,c
  1499   001F02  EF85  F00F         	goto	u5461
  1500   001F06  EF87  F00F         	goto	u5460
  1501   001F0A                     u5461:
  1502   001F0A  EF8A  F00F         	goto	l6648
  1503   001F0E                     u5460:
  1504   001F0E                     
  1505                           ;MCAL_Layer/I2C/hal_i2c.c: 67:             (SSPSTATbits.CKE = 1);
  1506   001F0E  8CC7               	bsf	199,6,c	;volatile
  1507                           
  1508                           ;MCAL_Layer/I2C/hal_i2c.c: 68:         }
  1509   001F10  EF98  F00F         	goto	l6652
  1510   001F14                     l6648:
  1511   001F14  EE20 F004          	lfsr	2,4
  1512   001F18  5047               	movf	MSSP_I2C_Init@i2c_obj^0,w,c
  1513   001F1A  26D9               	addwf	fsr2l,f,c
  1514   001F1C  5048               	movf	(MSSP_I2C_Init@i2c_obj+1)^0,w,c
  1515   001F1E  22DA               	addwfc	fsr2h,f,c
  1516   001F20  B4DF               	btfsc	indf2,2,c
  1517   001F22  EF95  F00F         	goto	u5471
  1518   001F26  EF97  F00F         	goto	u5470
  1519   001F2A                     u5471:
  1520   001F2A  EF98  F00F         	goto	l6652
  1521   001F2E                     u5470:
  1522   001F2E                     
  1523                           ;MCAL_Layer/I2C/hal_i2c.c: 70:             (SSPSTATbits.CKE = 0);
  1524   001F2E  9CC7               	bcf	199,6,c	;volatile
  1525   001F30                     l6652:
  1526                           
  1527                           ;MCAL_Layer/I2C/hal_i2c.c: 75:       MSSP_I2C_Interrupt_Configurations(i2c_obj);
  1528   001F30  C047  F002         	movff	MSSP_I2C_Init@i2c_obj,MSSP_I2C_Interrupt_Configurations@i2c_obj
  1529   001F34  C048  F003         	movff	MSSP_I2C_Init@i2c_obj+1,MSSP_I2C_Interrupt_Configurations@i2c_obj+1
  1530   001F38  EC30  F011         	call	_MSSP_I2C_Interrupt_Configurations	;wreg free
  1531   001F3C                     
  1532                           ;MCAL_Layer/I2C/hal_i2c.c: 78:         (SSPCON1bits.SSPEN = 1);
  1533   001F3C  8AC6               	bsf	198,5,c	;volatile
  1534   001F3E                     l1774:
  1535   001F3E  0012               	return		;funcret
  1536   001F40                     __end_of_MSSP_I2C_Init:
  1537                           	callstack 0
  1538                           
  1539 ;; *************** function _MSSP_I2C_Mode_GPIO_CFG *****************
  1540 ;; Defined at:
  1541 ;;		line 260 in file "MCAL_Layer/I2C/hal_i2c.c"
  1542 ;; Parameters:    Size  Location     Type
  1543 ;;		None
  1544 ;; Auto vars:     Size  Location     Type
  1545 ;;		None
  1546 ;; Return value:  Size  Location     Type
  1547 ;;                  1    wreg      void 
  1548 ;; Registers used:
  1549 ;;		None
  1550 ;; Tracked objects:
  1551 ;;		On entry : 0/0
  1552 ;;		On exit  : 0/0
  1553 ;;		Unchanged: 0/0
  1554 ;; Data sizes:     COMRAM   BANK0   BANK1   BANK2   BANK3   BANK4   BANK5   BANK6   BANK7   BANK8   BANK9  BANK10  BANK1
      +1  BANK12  BANK13  BANK14  BANK15
  1555 ;;      Params:         0       0       0       0       0       0       0       0       0       0       0       0       
      +0       0       0       0       0
  1556 ;;      Locals:         0       0       0       0       0       0       0       0       0       0       0       0       
      +0       0       0       0       0
  1557 ;;      Temps:          0       0       0       0       0       0       0       0       0       0       0       0       
      +0       0       0       0       0
  1558 ;;      Totals:         0       0       0       0       0       0       0       0       0       0       0       0       
      +0       0       0       0       0
  1559 ;;Total ram usage:        0 bytes
  1560 ;; Hardware stack levels used: 1
  1561 ;; Hardware stack levels required when called: 2
  1562 ;; This function calls:
  1563 ;;		Nothing
  1564 ;; This function is called by:
  1565 ;;		_MSSP_I2C_Init
  1566 ;; This function uses a non-reentrant model
  1567 ;;
  1568                           
  1569                           	psect	text6
  1570   0023F6                     __ptext6:
  1571                           	callstack 0
  1572   0023F6                     _MSSP_I2C_Mode_GPIO_CFG:
  1573                           	callstack 27
  1574   0023F6                     
  1575                           ;MCAL_Layer/I2C/hal_i2c.c: 261:     TRISCbits.TRISC3 = 1;
  1576   0023F6  8694               	bsf	148,3,c	;volatile
  1577                           
  1578                           ;MCAL_Layer/I2C/hal_i2c.c: 262:     TRISCbits.TRISC4 = 1;
  1579   0023F8  8894               	bsf	148,4,c	;volatile
  1580   0023FA  0012               	return		;funcret
  1581   0023FC                     __end_of_MSSP_I2C_Mode_GPIO_CFG:
  1582                           	callstack 0
  1583                           
  1584 ;; *************** function _MSSP_I2C_Interrupt_Configurations *****************
  1585 ;; Defined at:
  1586 ;;		line 275 in file "MCAL_Layer/I2C/hal_i2c.c"
  1587 ;; Parameters:    Size  Location     Type
  1588 ;;  i2c_obj         2    1[COMRAM] PTR const struct .
  1589 ;;		 -> i2c_obj(13), 
  1590 ;; Auto vars:     Size  Location     Type
  1591 ;;		None
  1592 ;; Return value:  Size  Location     Type
  1593 ;;                  1    wreg      void 
  1594 ;; Registers used:
  1595 ;;		wreg, fsr2l, fsr2h, status,2, status,0
  1596 ;; Tracked objects:
  1597 ;;		On entry : 0/0
  1598 ;;		On exit  : 0/0
  1599 ;;		Unchanged: 0/0
  1600 ;; Data sizes:     COMRAM   BANK0   BANK1   BANK2   BANK3   BANK4   BANK5   BANK6   BANK7   BANK8   BANK9  BANK10  BANK1
      +1  BANK12  BANK13  BANK14  BANK15
  1601 ;;      Params:         2       0       0       0       0       0       0       0       0       0       0       0       
      +0       0       0       0       0
  1602 ;;      Locals:         0       0       0       0       0       0       0       0       0       0       0       0       
      +0       0       0       0       0
  1603 ;;      Temps:          0       0       0       0       0       0       0       0       0       0       0       0       
      +0       0       0       0       0
  1604 ;;      Totals:         2       0       0       0       0       0       0       0       0       0       0       0       
      +0       0       0       0       0
  1605 ;;Total ram usage:        2 bytes
  1606 ;; Hardware stack levels used: 1
  1607 ;; Hardware stack levels required when called: 2
  1608 ;; This function calls:
  1609 ;;		Nothing
  1610 ;; This function is called by:
  1611 ;;		_MSSP_I2C_Init
  1612 ;; This function uses a non-reentrant model
  1613 ;;
  1614                           
  1615                           	psect	text7
  1616   002260                     __ptext7:
  1617                           	callstack 0
  1618   002260                     _MSSP_I2C_Interrupt_Configurations:
  1619                           	callstack 27
  1620   002260                     
  1621                           ;MCAL_Layer/I2C/hal_i2c.c: 277:         (PIE1bits.SSPIE = 1);
  1622   002260  869D               	bsf	157,3,c	;volatile
  1623                           
  1624                           ;MCAL_Layer/I2C/hal_i2c.c: 278:         (PIE2bits.BCLIE = 1);
  1625   002262  86A0               	bsf	160,3,c	;volatile
  1626                           
  1627                           ;MCAL_Layer/I2C/hal_i2c.c: 279:         (PIR1bits.SSPIF = 0);
  1628   002264  969E               	bcf	158,3,c	;volatile
  1629                           
  1630                           ;MCAL_Layer/I2C/hal_i2c.c: 280:         (PIR2bits.BCLIF = 0);
  1631   002266  96A1               	bcf	161,3,c	;volatile
  1632   002268                     
  1633                           ;MCAL_Layer/I2C/hal_i2c.c: 281:         I2C_Report_Write_Collision_InterruptHandler = i2
      +                          c_obj->I2C_Report_Write_Collision;
  1634   002268  EE20 F007          	lfsr	2,7
  1635   00226C  5002               	movf	MSSP_I2C_Interrupt_Configurations@i2c_obj^0,w,c
  1636   00226E  26D9               	addwf	fsr2l,f,c
  1637   002270  5003               	movf	(MSSP_I2C_Interrupt_Configurations@i2c_obj+1)^0,w,c
  1638   002272  22DA               	addwfc	fsr2h,f,c
  1639   002274  CFDE F0DD          	movff	postinc2,_I2C_Report_Write_Collision_InterruptHandler
  1640   002278  CFDD F0DE          	movff	postdec2,_I2C_Report_Write_Collision_InterruptHandler+1
  1641                           
  1642                           ;MCAL_Layer/I2C/hal_i2c.c: 282:         I2C_DefaultInterruptHandle = i2c_obj->I2C_Defaul
      +                          tInterruptHandler;
  1643   00227C  EE20 F009          	lfsr	2,9
  1644   002280  5002               	movf	MSSP_I2C_Interrupt_Configurations@i2c_obj^0,w,c
  1645   002282  26D9               	addwf	fsr2l,f,c
  1646   002284  5003               	movf	(MSSP_I2C_Interrupt_Configurations@i2c_obj+1)^0,w,c
  1647   002286  22DA               	addwfc	fsr2h,f,c
  1648   002288  CFDE F0DB          	movff	postinc2,_I2C_DefaultInterruptHandle
  1649   00228C  CFDD F0DC          	movff	postdec2,_I2C_DefaultInterruptHandle+1
  1650                           
  1651                           ;MCAL_Layer/I2C/hal_i2c.c: 283:         I2C_Report_Receive_Overflow_InterruptHandle = i2
      +                          c_obj->I2C_Report_Receive_Overflow;
  1652   002290  EE20 F00B          	lfsr	2,11
  1653   002294  5002               	movf	MSSP_I2C_Interrupt_Configurations@i2c_obj^0,w,c
  1654   002296  26D9               	addwf	fsr2l,f,c
  1655   002298  5003               	movf	(MSSP_I2C_Interrupt_Configurations@i2c_obj+1)^0,w,c
  1656   00229A  22DA               	addwfc	fsr2h,f,c
  1657   00229C  CFDE F0D9          	movff	postinc2,_I2C_Report_Receive_Overflow_InterruptHandle
  1658   0022A0  CFDD F0DA          	movff	postdec2,_I2C_Report_Receive_Overflow_InterruptHandle+1
  1659   0022A4                     
  1660                           ;MCAL_Layer/I2C/hal_i2c.c: 311:         (INTCONbits.GIE = 1);
  1661   0022A4  8EF2               	bsf	242,7,c	;volatile
  1662   0022A6                     
  1663                           ;MCAL_Layer/I2C/hal_i2c.c: 312:         (INTCONbits.PEIE = 1);
  1664   0022A6  8CF2               	bsf	242,6,c	;volatile
  1665   0022A8  0012               	return		;funcret
  1666   0022AA                     __end_of_MSSP_I2C_Interrupt_Configurations:
  1667                           	callstack 0
  1668                           
  1669 ;; *************** function _I2C_Slave_Mode_Configurations *****************
  1670 ;; Defined at:
  1671 ;;		line 271 in file "MCAL_Layer/I2C/hal_i2c.c"
  1672 ;; Parameters:    Size  Location     Type
  1673 ;;  i2c_obj         2    1[COMRAM] PTR const struct .
  1674 ;;		 -> i2c_obj(13), 
  1675 ;; Auto vars:     Size  Location     Type
  1676 ;;		None
  1677 ;; Return value:  Size  Location     Type
  1678 ;;                  1    wreg      void 
  1679 ;; Registers used:
  1680 ;;		wreg, fsr2l, fsr2h, status,2, status,0
  1681 ;; Tracked objects:
  1682 ;;		On entry : 0/0
  1683 ;;		On exit  : 0/0
  1684 ;;		Unchanged: 0/0
  1685 ;; Data sizes:     COMRAM   BANK0   BANK1   BANK2   BANK3   BANK4   BANK5   BANK6   BANK7   BANK8   BANK9  BANK10  BANK1
      +1  BANK12  BANK13  BANK14  BANK15
  1686 ;;      Params:         2       0       0       0       0       0       0       0       0       0       0       0       
      +0       0       0       0       0
  1687 ;;      Locals:         0       0       0       0       0       0       0       0       0       0       0       0       
      +0       0       0       0       0
  1688 ;;      Temps:          1       0       0       0       0       0       0       0       0       0       0       0       
      +0       0       0       0       0
  1689 ;;      Totals:         3       0       0       0       0       0       0       0       0       0       0       0       
      +0       0       0       0       0
  1690 ;;Total ram usage:        3 bytes
  1691 ;; Hardware stack levels used: 1
  1692 ;; Hardware stack levels required when called: 2
  1693 ;; This function calls:
  1694 ;;		Nothing
  1695 ;; This function is called by:
  1696 ;;		_MSSP_I2C_Init
  1697 ;; This function uses a non-reentrant model
  1698 ;;
  1699                           
  1700                           	psect	text8
  1701   00232E                     __ptext8:
  1702                           	callstack 0
  1703   00232E                     _I2C_Slave_Mode_Configurations:
  1704                           	callstack 27
  1705   00232E                     
  1706                           ;MCAL_Layer/I2C/hal_i2c.c: 272:     SSPCON1bits.SSPM = i2c_obj->i2c_cfg.i2c_mode_cfg;
  1707   00232E  EE20 F002          	lfsr	2,2
  1708   002332  5002               	movf	I2C_Slave_Mode_Configurations@i2c_obj^0,w,c
  1709   002334  26D9               	addwf	fsr2l,f,c
  1710   002336  5003               	movf	(I2C_Slave_Mode_Configurations@i2c_obj+1)^0,w,c
  1711   002338  22DA               	addwfc	fsr2h,f,c
  1712   00233A  50DF               	movf	indf2,w,c
  1713   00233C  6E04               	movwf	??_I2C_Slave_Mode_Configurations^0,c
  1714   00233E  50C6               	movf	198,w,c	;volatile
  1715   002340  1804               	xorwf	??_I2C_Slave_Mode_Configurations^0,w,c
  1716   002342  0BF0               	andlw	-16
  1717   002344  1804               	xorwf	??_I2C_Slave_Mode_Configurations^0,w,c
  1718   002346  6EC6               	movwf	198,c	;volatile
  1719   002348  0012               	return		;funcret
  1720   00234A                     __end_of_I2C_Slave_Mode_Configurations:
  1721                           	callstack 0
  1722                           
  1723 ;; *************** function _I2C_Master_Mode_Clock_Configurations *****************
  1724 ;; Defined at:
  1725 ;;		line 265 in file "MCAL_Layer/I2C/hal_i2c.c"
  1726 ;; Parameters:    Size  Location     Type
  1727 ;;  i2c_obj         2   66[COMRAM] PTR const struct .
  1728 ;;		 -> i2c_obj(13), 
  1729 ;; Auto vars:     Size  Location     Type
  1730 ;;		None
  1731 ;; Return value:  Size  Location     Type
  1732 ;;                  1    wreg      void 
  1733 ;; Registers used:
  1734 ;;		wreg, fsr2l, fsr2h, status,2, status,0, cstack
  1735 ;; Tracked objects:
  1736 ;;		On entry : 0/0
  1737 ;;		On exit  : 0/0
  1738 ;;		Unchanged: 0/0
  1739 ;; Data sizes:     COMRAM   BANK0   BANK1   BANK2   BANK3   BANK4   BANK5   BANK6   BANK7   BANK8   BANK9  BANK10  BANK1
      +1  BANK12  BANK13  BANK14  BANK15
  1740 ;;      Params:         2       0       0       0       0       0       0       0       0       0       0       0       
      +0       0       0       0       0
  1741 ;;      Locals:         0       0       0       0       0       0       0       0       0       0       0       0       
      +0       0       0       0       0
  1742 ;;      Temps:          2       0       0       0       0       0       0       0       0       0       0       0       
      +0       0       0       0       0
  1743 ;;      Totals:         4       0       0       0       0       0       0       0       0       0       0       0       
      +0       0       0       0       0
  1744 ;;Total ram usage:        4 bytes
  1745 ;; Hardware stack levels used: 1
  1746 ;; Hardware stack levels required when called: 3
  1747 ;; This function calls:
  1748 ;;		___fladd
  1749 ;;		___fldiv
  1750 ;;		___fltol
  1751 ;;		___xxtofl
  1752 ;; This function is called by:
  1753 ;;		_MSSP_I2C_Init
  1754 ;; This function uses a non-reentrant model
  1755 ;;
  1756                           
  1757                           	psect	text9
  1758   002046                     __ptext9:
  1759                           	callstack 0
  1760   002046                     _I2C_Master_Mode_Clock_Configurations:
  1761                           	callstack 26
  1762   002046                     
  1763                           ;MCAL_Layer/I2C/hal_i2c.c: 267:     SSPCON1bits.SSPM = i2c_obj->i2c_cfg.i2c_mode_cfg;
  1764   002046  EE20 F002          	lfsr	2,2
  1765   00204A  5043               	movf	I2C_Master_Mode_Clock_Configurations@i2c_obj^0,w,c
  1766   00204C  26D9               	addwf	fsr2l,f,c
  1767   00204E  5044               	movf	(I2C_Master_Mode_Clock_Configurations@i2c_obj+1)^0,w,c
  1768   002050  22DA               	addwfc	fsr2h,f,c
  1769   002052  50DF               	movf	indf2,w,c
  1770   002054  6E45               	movwf	??_I2C_Master_Mode_Clock_Configurations^0,c
  1771   002056  50C6               	movf	198,w,c	;volatile
  1772   002058  1845               	xorwf	??_I2C_Master_Mode_Clock_Configurations^0,w,c
  1773   00205A  0BF0               	andlw	-16
  1774   00205C  1845               	xorwf	??_I2C_Master_Mode_Clock_Configurations^0,w,c
  1775   00205E  6EC6               	movwf	198,c	;volatile
  1776   002060                     
  1777                           ;MCAL_Layer/I2C/hal_i2c.c: 268:     SSPADD = (uint8)(((8000000UL / 4.0) / i2c_obj->i2c_c
      +                          lock) - 1);
  1778   002060  0E00               	movlw	0
  1779   002062  6E2D               	movwf	___fladd@a^0,c
  1780   002064  0E00               	movlw	0
  1781   002066  6E2E               	movwf	(___fladd@a+1)^0,c
  1782   002068  0E80               	movlw	128
  1783   00206A  6E2F               	movwf	(___fladd@a+2)^0,c
  1784   00206C  0EBF               	movlw	191
  1785   00206E  6E30               	movwf	(___fladd@a+3)^0,c
  1786   002070  C043  FFD9         	movff	I2C_Master_Mode_Clock_Configurations@i2c_obj,fsr2l
  1787   002074  C044  FFDA         	movff	I2C_Master_Mode_Clock_Configurations@i2c_obj+1,fsr2h
  1788   002078  CFDE F045          	movff	postinc2,??_I2C_Master_Mode_Clock_Configurations
  1789   00207C  CFDD F046          	movff	postdec2,??_I2C_Master_Mode_Clock_Configurations+1
  1790   002080  C045  F002         	movff	??_I2C_Master_Mode_Clock_Configurations,___xxtofl@val
  1791   002084  C046  F003         	movff	??_I2C_Master_Mode_Clock_Configurations+1,___xxtofl@val+1
  1792   002088  6A04               	clrf	(___xxtofl@val+2)^0,c
  1793   00208A  6A05               	clrf	(___xxtofl@val+3)^0,c
  1794   00208C  0E00               	movlw	0
  1795   00208E  EC23  F00E         	call	___xxtofl
  1796   002092  C002  F014         	movff	?___xxtofl,___fldiv@a
  1797   002096  C003  F015         	movff	?___xxtofl+1,___fldiv@a+1
  1798   00209A  C004  F016         	movff	?___xxtofl+2,___fldiv@a+2
  1799   00209E  C005  F017         	movff	?___xxtofl+3,___fldiv@a+3
  1800   0020A2  0E00               	movlw	0
  1801   0020A4  6E10               	movwf	___fldiv@b^0,c
  1802   0020A6  0E24               	movlw	36
  1803   0020A8  6E11               	movwf	(___fldiv@b+1)^0,c
  1804   0020AA  0EF4               	movlw	244
  1805   0020AC  6E12               	movwf	(___fldiv@b+2)^0,c
  1806   0020AE  0E49               	movlw	73
  1807   0020B0  6E13               	movwf	(___fldiv@b+3)^0,c
  1808   0020B2  EC56  F00C         	call	___fldiv	;wreg free
  1809   0020B6  C010  F029         	movff	?___fldiv,___fladd@b
  1810   0020BA  C011  F02A         	movff	?___fldiv+1,___fladd@b+1
  1811   0020BE  C012  F02B         	movff	?___fldiv+2,___fladd@b+2
  1812   0020C2  C013  F02C         	movff	?___fldiv+3,___fladd@b+3
  1813   0020C6  EC0B  F008         	call	___fladd	;wreg free
  1814   0020CA  C029  F039         	movff	?___fladd,___fltol@f1
  1815   0020CE  C02A  F03A         	movff	?___fladd+1,___fltol@f1+1
  1816   0020D2  C02B  F03B         	movff	?___fladd+2,___fltol@f1+2
  1817   0020D6  C02C  F03C         	movff	?___fladd+3,___fltol@f1+3
  1818   0020DA  ECA0  F00F         	call	___fltol	;wreg free
  1819   0020DE  5039               	movf	?___fltol^0,w,c
  1820   0020E0  6EC8               	movwf	200,c	;volatile
  1821   0020E2  0012               	return		;funcret
  1822   0020E4                     __end_of_I2C_Master_Mode_Clock_Configurations:
  1823                           	callstack 0
  1824                           
  1825 ;; *************** function ___xxtofl *****************
  1826 ;; Defined at:
  1827 ;;		line 10 in file "C:\Program Files\Microchip\xc8\v2.40\pic\sources\c99\common\xxtofl.c"
  1828 ;; Parameters:    Size  Location     Type
  1829 ;;  sign            1    wreg     unsigned char 
  1830 ;;  val             4    1[COMRAM] long 
  1831 ;; Auto vars:     Size  Location     Type
  1832 ;;  sign            1    9[COMRAM] unsigned char 
  1833 ;;  arg             4   11[COMRAM] unsigned long 
  1834 ;;  exp             1   10[COMRAM] unsigned char 
  1835 ;; Return value:  Size  Location     Type
  1836 ;;                  4    1[COMRAM] unsigned char 
  1837 ;; Registers used:
  1838 ;;		wreg, status,2, status,0
  1839 ;; Tracked objects:
  1840 ;;		On entry : 0/0
  1841 ;;		On exit  : 0/0
  1842 ;;		Unchanged: 0/0
  1843 ;; Data sizes:     COMRAM   BANK0   BANK1   BANK2   BANK3   BANK4   BANK5   BANK6   BANK7   BANK8   BANK9  BANK10  BANK1
      +1  BANK12  BANK13  BANK14  BANK15
  1844 ;;      Params:         4       0       0       0       0       0       0       0       0       0       0       0       
      +0       0       0       0       0
  1845 ;;      Locals:         6       0       0       0       0       0       0       0       0       0       0       0       
      +0       0       0       0       0
  1846 ;;      Temps:          4       0       0       0       0       0       0       0       0       0       0       0       
      +0       0       0       0       0
  1847 ;;      Totals:        14       0       0       0       0       0       0       0       0       0       0       0       
      +0       0       0       0       0
  1848 ;;Total ram usage:       14 bytes
  1849 ;; Hardware stack levels used: 1
  1850 ;; Hardware stack levels required when called: 2
  1851 ;; This function calls:
  1852 ;;		Nothing
  1853 ;; This function is called by:
  1854 ;;		_I2C_Master_Mode_Clock_Configurations
  1855 ;;		_CCP_PWM_Set_Duty
  1856 ;;		_CCP_PWM_Mode_Config
  1857 ;;		_EUSART_Baud_Rate_Calculation
  1858 ;; This function uses a non-reentrant model
  1859 ;;
  1860                           
  1861                           	psect	text10
  1862   001C46                     __ptext10:
  1863                           	callstack 0
  1864   001C46                     ___xxtofl:
  1865                           	callstack 26
  1866                           
  1867                           ;incstack = 0
  1868                           ;___xxtofl@sign stored from wreg
  1869   001C46  6E0A               	movwf	___xxtofl@sign^0,c
  1870   001C48  500A               	movf	___xxtofl@sign^0,w,c
  1871   001C4A  B4D8               	btfsc	status,2,c
  1872   001C4C  EF2A  F00E         	goto	u4981
  1873   001C50  EF2C  F00E         	goto	u4980
  1874   001C54                     u4981:
  1875   001C54  EF4E  F00E         	goto	l2531
  1876   001C58                     u4980:
  1877   001C58  BE05               	btfsc	(___xxtofl@val+3)^0,7,c
  1878   001C5A  EF33  F00E         	goto	u4990
  1879   001C5E  EF31  F00E         	goto	u4991
  1880   001C62                     u4991:
  1881   001C62  EF4E  F00E         	goto	l2531
  1882   001C66                     u4990:
  1883   001C66  C002  F006         	movff	___xxtofl@val,??___xxtofl
  1884   001C6A  C003  F007         	movff	___xxtofl@val+1,??___xxtofl+1
  1885   001C6E  C004  F008         	movff	___xxtofl@val+2,??___xxtofl+2
  1886   001C72  C005  F009         	movff	___xxtofl@val+3,??___xxtofl+3
  1887   001C76  1E06               	comf	??___xxtofl^0,f,c
  1888   001C78  1E07               	comf	(??___xxtofl+1)^0,f,c
  1889   001C7A  1E08               	comf	(??___xxtofl+2)^0,f,c
  1890   001C7C  1E09               	comf	(??___xxtofl+3)^0,f,c
  1891   001C7E  2A06               	incf	??___xxtofl^0,f,c
  1892   001C80  0E00               	movlw	0
  1893   001C82  2207               	addwfc	(??___xxtofl+1)^0,f,c
  1894   001C84  2208               	addwfc	(??___xxtofl+2)^0,f,c
  1895   001C86  2209               	addwfc	(??___xxtofl+3)^0,f,c
  1896   001C88  C006  F00C         	movff	??___xxtofl,___xxtofl@arg
  1897   001C8C  C007  F00D         	movff	??___xxtofl+1,___xxtofl@arg+1
  1898   001C90  C008  F00E         	movff	??___xxtofl+2,___xxtofl@arg+2
  1899   001C94  C009  F00F         	movff	??___xxtofl+3,___xxtofl@arg+3
  1900   001C98  EF56  F00E         	goto	l6206
  1901   001C9C                     l2531:
  1902   001C9C  C002  F00C         	movff	___xxtofl@val,___xxtofl@arg
  1903   001CA0  C003  F00D         	movff	___xxtofl@val+1,___xxtofl@arg+1
  1904   001CA4  C004  F00E         	movff	___xxtofl@val+2,___xxtofl@arg+2
  1905   001CA8  C005  F00F         	movff	___xxtofl@val+3,___xxtofl@arg+3
  1906   001CAC                     l6206:
  1907   001CAC  5002               	movf	___xxtofl@val^0,w,c
  1908   001CAE  1003               	iorwf	(___xxtofl@val+1)^0,w,c
  1909   001CB0  1004               	iorwf	(___xxtofl@val+2)^0,w,c
  1910   001CB2  1005               	iorwf	(___xxtofl@val+3)^0,w,c
  1911   001CB4  A4D8               	btfss	status,2,c
  1912   001CB6  EF5F  F00E         	goto	u5001
  1913   001CBA  EF61  F00E         	goto	u5000
  1914   001CBE                     u5001:
  1915   001CBE  EF6B  F00E         	goto	l6212
  1916   001CC2                     u5000:
  1917   001CC2  0E00               	movlw	0
  1918   001CC4  6E02               	movwf	?___xxtofl^0,c
  1919   001CC6  0E00               	movlw	0
  1920   001CC8  6E03               	movwf	(?___xxtofl+1)^0,c
  1921   001CCA  0E00               	movlw	0
  1922   001CCC  6E04               	movwf	(?___xxtofl+2)^0,c
  1923   001CCE  0E00               	movlw	0
  1924   001CD0  6E05               	movwf	(?___xxtofl+3)^0,c
  1925   001CD2  EFFC  F00E         	goto	l2534
  1926   001CD6                     l6212:
  1927   001CD6  0E96               	movlw	150
  1928   001CD8  6E0B               	movwf	___xxtofl@exp^0,c
  1929   001CDA  EF75  F00E         	goto	l6216
  1930   001CDE                     l6214:
  1931   001CDE  2A0B               	incf	___xxtofl@exp^0,f,c
  1932   001CE0  90D8               	bcf	status,0,c
  1933   001CE2  320F               	rrcf	(___xxtofl@arg+3)^0,f,c
  1934   001CE4  320E               	rrcf	(___xxtofl@arg+2)^0,f,c
  1935   001CE6  320D               	rrcf	(___xxtofl@arg+1)^0,f,c
  1936   001CE8  320C               	rrcf	___xxtofl@arg^0,f,c
  1937   001CEA                     l6216:
  1938   001CEA  0E00               	movlw	0
  1939   001CEC  140C               	andwf	___xxtofl@arg^0,w,c
  1940   001CEE  6E06               	movwf	??___xxtofl^0,c
  1941   001CF0  0E00               	movlw	0
  1942   001CF2  140D               	andwf	(___xxtofl@arg+1)^0,w,c
  1943   001CF4  6E07               	movwf	(??___xxtofl+1)^0,c
  1944   001CF6  0E00               	movlw	0
  1945   001CF8  140E               	andwf	(___xxtofl@arg+2)^0,w,c
  1946   001CFA  6E08               	movwf	(??___xxtofl+2)^0,c
  1947   001CFC  0EFE               	movlw	254
  1948   001CFE  140F               	andwf	(___xxtofl@arg+3)^0,w,c
  1949   001D00  6E09               	movwf	(??___xxtofl+3)^0,c
  1950   001D02  5006               	movf	??___xxtofl^0,w,c
  1951   001D04  1007               	iorwf	(??___xxtofl+1)^0,w,c
  1952   001D06  1008               	iorwf	(??___xxtofl+2)^0,w,c
  1953   001D08  1009               	iorwf	(??___xxtofl+3)^0,w,c
  1954   001D0A  A4D8               	btfss	status,2,c
  1955   001D0C  EF8A  F00E         	goto	u5011
  1956   001D10  EF8C  F00E         	goto	u5010
  1957   001D14                     u5011:
  1958   001D14  EF6F  F00E         	goto	l6214
  1959   001D18                     u5010:
  1960   001D18  EF9A  F00E         	goto	l2538
  1961   001D1C                     l6218:
  1962   001D1C  2A0B               	incf	___xxtofl@exp^0,f,c
  1963   001D1E  0E01               	movlw	1
  1964   001D20  260C               	addwf	___xxtofl@arg^0,f,c
  1965   001D22  0E00               	movlw	0
  1966   001D24  220D               	addwfc	(___xxtofl@arg+1)^0,f,c
  1967   001D26  220E               	addwfc	(___xxtofl@arg+2)^0,f,c
  1968   001D28  220F               	addwfc	(___xxtofl@arg+3)^0,f,c
  1969   001D2A  90D8               	bcf	status,0,c
  1970   001D2C  320F               	rrcf	(___xxtofl@arg+3)^0,f,c
  1971   001D2E  320E               	rrcf	(___xxtofl@arg+2)^0,f,c
  1972   001D30  320D               	rrcf	(___xxtofl@arg+1)^0,f,c
  1973   001D32  320C               	rrcf	___xxtofl@arg^0,f,c
  1974   001D34                     l2538:
  1975   001D34  0E00               	movlw	0
  1976   001D36  140C               	andwf	___xxtofl@arg^0,w,c
  1977   001D38  6E06               	movwf	??___xxtofl^0,c
  1978   001D3A  0E00               	movlw	0
  1979   001D3C  140D               	andwf	(___xxtofl@arg+1)^0,w,c
  1980   001D3E  6E07               	movwf	(??___xxtofl+1)^0,c
  1981   001D40  0E00               	movlw	0
  1982   001D42  140E               	andwf	(___xxtofl@arg+2)^0,w,c
  1983   001D44  6E08               	movwf	(??___xxtofl+2)^0,c
  1984   001D46  0EFF               	movlw	255
  1985   001D48  140F               	andwf	(___xxtofl@arg+3)^0,w,c
  1986   001D4A  6E09               	movwf	(??___xxtofl+3)^0,c
  1987   001D4C  5006               	movf	??___xxtofl^0,w,c
  1988   001D4E  1007               	iorwf	(??___xxtofl+1)^0,w,c
  1989   001D50  1008               	iorwf	(??___xxtofl+2)^0,w,c
  1990   001D52  1009               	iorwf	(??___xxtofl+3)^0,w,c
  1991   001D54  A4D8               	btfss	status,2,c
  1992   001D56  EFAF  F00E         	goto	u5021
  1993   001D5A  EFB1  F00E         	goto	u5020
  1994   001D5E                     u5021:
  1995   001D5E  EF8E  F00E         	goto	l6218
  1996   001D62                     u5020:
  1997   001D62  EFB9  F00E         	goto	l6226
  1998   001D66                     l6224:
  1999   001D66  060B               	decf	___xxtofl@exp^0,f,c
  2000   001D68  90D8               	bcf	status,0,c
  2001   001D6A  360C               	rlcf	___xxtofl@arg^0,f,c
  2002   001D6C  360D               	rlcf	(___xxtofl@arg+1)^0,f,c
  2003   001D6E  360E               	rlcf	(___xxtofl@arg+2)^0,f,c
  2004   001D70  360F               	rlcf	(___xxtofl@arg+3)^0,f,c
  2005   001D72                     l6226:
  2006   001D72  BE0E               	btfsc	(___xxtofl@arg+2)^0,7,c
  2007   001D74  EFBE  F00E         	goto	u5031
  2008   001D78  EFC0  F00E         	goto	u5030
  2009   001D7C                     u5031:
  2010   001D7C  EFC8  F00E         	goto	l2545
  2011   001D80                     u5030:
  2012   001D80  0E02               	movlw	2
  2013   001D82  600B               	cpfslt	___xxtofl@exp^0,c
  2014   001D84  EFC6  F00E         	goto	u5041
  2015   001D88  EFC8  F00E         	goto	u5040
  2016   001D8C                     u5041:
  2017   001D8C  EFB3  F00E         	goto	l6224
  2018   001D90                     u5040:
  2019   001D90                     l2545:
  2020   001D90  B00B               	btfsc	___xxtofl@exp^0,0,c
  2021   001D92  EFCD  F00E         	goto	u5051
  2022   001D96  EFCF  F00E         	goto	u5050
  2023   001D9A                     u5051:
  2024   001D9A  EFD0  F00E         	goto	l6232
  2025   001D9E                     u5050:
  2026   001D9E  9E0E               	bcf	(___xxtofl@arg+2)^0,7,c
  2027   001DA0                     l6232:
  2028   001DA0  90D8               	bcf	status,0,c
  2029   001DA2  320B               	rrcf	___xxtofl@exp^0,f,c
  2030   001DA4  C00B  F006         	movff	___xxtofl@exp,??___xxtofl
  2031   001DA8  6A07               	clrf	(??___xxtofl+1)^0,c
  2032   001DAA  6A08               	clrf	(??___xxtofl+2)^0,c
  2033   001DAC  6A09               	clrf	(??___xxtofl+3)^0,c
  2034   001DAE  C006  F009         	movff	??___xxtofl,??___xxtofl+3
  2035   001DB2  6A08               	clrf	(??___xxtofl+2)^0,c
  2036   001DB4  6A07               	clrf	(??___xxtofl+1)^0,c
  2037   001DB6  6A06               	clrf	??___xxtofl^0,c
  2038   001DB8  5006               	movf	??___xxtofl^0,w,c
  2039   001DBA  120C               	iorwf	___xxtofl@arg^0,f,c
  2040   001DBC  5007               	movf	(??___xxtofl+1)^0,w,c
  2041   001DBE  120D               	iorwf	(___xxtofl@arg+1)^0,f,c
  2042   001DC0  5008               	movf	(??___xxtofl+2)^0,w,c
  2043   001DC2  120E               	iorwf	(___xxtofl@arg+2)^0,f,c
  2044   001DC4  5009               	movf	(??___xxtofl+3)^0,w,c
  2045   001DC6  120F               	iorwf	(___xxtofl@arg+3)^0,f,c
  2046   001DC8  500A               	movf	___xxtofl@sign^0,w,c
  2047   001DCA  B4D8               	btfsc	status,2,c
  2048   001DCC  EFEA  F00E         	goto	u5061
  2049   001DD0  EFEC  F00E         	goto	u5060
  2050   001DD4                     u5061:
  2051   001DD4  EFF4  F00E         	goto	l6242
  2052   001DD8                     u5060:
  2053   001DD8  BE05               	btfsc	(___xxtofl@val+3)^0,7,c
  2054   001DDA  EFF3  F00E         	goto	u5070
  2055   001DDE  EFF1  F00E         	goto	u5071
  2056   001DE2                     u5071:
  2057   001DE2  EFF4  F00E         	goto	l6242
  2058   001DE6                     u5070:
  2059   001DE6  8E0F               	bsf	(___xxtofl@arg+3)^0,7,c
  2060   001DE8                     l6242:
  2061   001DE8  C00C  F002         	movff	___xxtofl@arg,?___xxtofl
  2062   001DEC  C00D  F003         	movff	___xxtofl@arg+1,?___xxtofl+1
  2063   001DF0  C00E  F004         	movff	___xxtofl@arg+2,?___xxtofl+2
  2064   001DF4  C00F  F005         	movff	___xxtofl@arg+3,?___xxtofl+3
  2065   001DF8                     l2534:
  2066   001DF8  0012               	return		;funcret
  2067   001DFA                     __end_of___xxtofl:
  2068                           	callstack 0
  2069                           
  2070 ;; *************** function ___fltol *****************
  2071 ;; Defined at:
  2072 ;;		line 43 in file "C:\Program Files\Microchip\xc8\v2.40\pic\sources\c99\common\fltol.c"
  2073 ;; Parameters:    Size  Location     Type
  2074 ;;  f1              4   56[COMRAM] unsigned char 
  2075 ;; Auto vars:     Size  Location     Type
  2076 ;;  exp1            1   65[COMRAM] unsigned char 
  2077 ;;  sign1           1   64[COMRAM] unsigned char 
  2078 ;; Return value:  Size  Location     Type
  2079 ;;                  4   56[COMRAM] long 
  2080 ;; Registers used:
  2081 ;;		wreg, status,2, status,0
  2082 ;; Tracked objects:
  2083 ;;		On entry : 0/0
  2084 ;;		On exit  : 0/0
  2085 ;;		Unchanged: 0/0
  2086 ;; Data sizes:     COMRAM   BANK0   BANK1   BANK2   BANK3   BANK4   BANK5   BANK6   BANK7   BANK8   BANK9  BANK10  BANK1
      +1  BANK12  BANK13  BANK14  BANK15
  2087 ;;      Params:         4       0       0       0       0       0       0       0       0       0       0       0       
      +0       0       0       0       0
  2088 ;;      Locals:         2       0       0       0       0       0       0       0       0       0       0       0       
      +0       0       0       0       0
  2089 ;;      Temps:          4       0       0       0       0       0       0       0       0       0       0       0       
      +0       0       0       0       0
  2090 ;;      Totals:        10       0       0       0       0       0       0       0       0       0       0       0       
      +0       0       0       0       0
  2091 ;;Total ram usage:       10 bytes
  2092 ;; Hardware stack levels used: 1
  2093 ;; Hardware stack levels required when called: 2
  2094 ;; This function calls:
  2095 ;;		Nothing
  2096 ;; This function is called by:
  2097 ;;		_I2C_Master_Mode_Clock_Configurations
  2098 ;;		_CCP_PWM_Set_Duty
  2099 ;;		_CCP_PWM_Mode_Config
  2100 ;;		_EUSART_Baud_Rate_Calculation
  2101 ;; This function uses a non-reentrant model
  2102 ;;
  2103                           
  2104                           	psect	text11
  2105   001F40                     __ptext11:
  2106                           	callstack 0
  2107   001F40                     ___fltol:
  2108                           	callstack 26
  2109   001F40  343B               	rlcf	(___fltol@f1+2)^0,w,c
  2110   001F42  343C               	rlcf	(___fltol@f1+3)^0,w,c
  2111   001F44  6E42               	movwf	___fltol@exp1^0,c
  2112   001F46  5042               	movf	___fltol@exp1^0,w,c
  2113   001F48  A4D8               	btfss	status,2,c
  2114   001F4A  EFA9  F00F         	goto	u4911
  2115   001F4E  EFAB  F00F         	goto	u4910
  2116   001F52                     u4911:
  2117   001F52  EFB5  F00F         	goto	l6162
  2118   001F56                     u4910:
  2119   001F56                     l6158:
  2120   001F56  0E00               	movlw	0
  2121   001F58  6E39               	movwf	?___fltol^0,c
  2122   001F5A  0E00               	movlw	0
  2123   001F5C  6E3A               	movwf	(?___fltol+1)^0,c
  2124   001F5E  0E00               	movlw	0
  2125   001F60  6E3B               	movwf	(?___fltol+2)^0,c
  2126   001F62  0E00               	movlw	0
  2127   001F64  6E3C               	movwf	(?___fltol+3)^0,c
  2128   001F66  EF22  F010         	goto	l2173
  2129   001F6A                     l6162:
  2130   001F6A  C039  F03D         	movff	___fltol@f1,??___fltol
  2131   001F6E  C03A  F03E         	movff	___fltol@f1+1,??___fltol+1
  2132   001F72  C03B  F03F         	movff	___fltol@f1+2,??___fltol+2
  2133   001F76  C03C  F040         	movff	___fltol@f1+3,??___fltol+3
  2134   001F7A  0E20               	movlw	32
  2135   001F7C  EFC5  F00F         	goto	u4920
  2136   001F80                     u4925:
  2137   001F80  90D8               	bcf	status,0,c
  2138   001F82  3240               	rrcf	(??___fltol+3)^0,f,c
  2139   001F84  323F               	rrcf	(??___fltol+2)^0,f,c
  2140   001F86  323E               	rrcf	(??___fltol+1)^0,f,c
  2141   001F88  323D               	rrcf	??___fltol^0,f,c
  2142   001F8A                     u4920:
  2143   001F8A  2EE8               	decfsz	wreg,f,c
  2144   001F8C  EFC0  F00F         	goto	u4925
  2145   001F90  503D               	movf	??___fltol^0,w,c
  2146   001F92  6E41               	movwf	___fltol@sign1^0,c
  2147   001F94  8E3B               	bsf	(___fltol@f1+2)^0,7,c
  2148   001F96  0EFF               	movlw	255
  2149   001F98  1639               	andwf	___fltol@f1^0,f,c
  2150   001F9A  0EFF               	movlw	255
  2151   001F9C  163A               	andwf	(___fltol@f1+1)^0,f,c
  2152   001F9E  0EFF               	movlw	255
  2153   001FA0  163B               	andwf	(___fltol@f1+2)^0,f,c
  2154   001FA2  0E00               	movlw	0
  2155   001FA4  163C               	andwf	(___fltol@f1+3)^0,f,c
  2156   001FA6  0E96               	movlw	150
  2157   001FA8  5E42               	subwf	___fltol@exp1^0,f,c
  2158   001FAA  BE42               	btfsc	___fltol@exp1^0,7,c
  2159   001FAC  EFDC  F00F         	goto	u4930
  2160   001FB0  EFDA  F00F         	goto	u4931
  2161   001FB4                     u4931:
  2162   001FB4  EFF2  F00F         	goto	l6182
  2163   001FB8                     u4930:
  2164   001FB8  5042               	movf	___fltol@exp1^0,w,c
  2165   001FBA  0A80               	xorlw	128
  2166   001FBC  0F97               	addlw	151
  2167   001FBE  B0D8               	btfsc	status,0,c
  2168   001FC0  EFE4  F00F         	goto	u4941
  2169   001FC4  EFE6  F00F         	goto	u4940
  2170   001FC8                     u4941:
  2171   001FC8  EFE8  F00F         	goto	l6178
  2172   001FCC                     u4940:
  2173   001FCC  EFAB  F00F         	goto	l6158
  2174   001FD0                     l6178:
  2175   001FD0  90D8               	bcf	status,0,c
  2176   001FD2  323C               	rrcf	(___fltol@f1+3)^0,f,c
  2177   001FD4  323B               	rrcf	(___fltol@f1+2)^0,f,c
  2178   001FD6  323A               	rrcf	(___fltol@f1+1)^0,f,c
  2179   001FD8  3239               	rrcf	___fltol@f1^0,f,c
  2180   001FDA  3E42               	incfsz	___fltol@exp1^0,f,c
  2181   001FDC  EFE8  F00F         	goto	l6178
  2182   001FE0  EF0A  F010         	goto	l6192
  2183   001FE4                     l6182:
  2184   001FE4  0E1F               	movlw	31
  2185   001FE6  6442               	cpfsgt	___fltol@exp1^0,c
  2186   001FE8  EFF8  F00F         	goto	u4951
  2187   001FEC  EFFA  F00F         	goto	u4950
  2188   001FF0                     u4951:
  2189   001FF0  EF02  F010         	goto	l6190
  2190   001FF4                     u4950:
  2191   001FF4  EFAB  F00F         	goto	l6158
  2192   001FF8                     l6188:
  2193   001FF8  90D8               	bcf	status,0,c
  2194   001FFA  3639               	rlcf	___fltol@f1^0,f,c
  2195   001FFC  363A               	rlcf	(___fltol@f1+1)^0,f,c
  2196   001FFE  363B               	rlcf	(___fltol@f1+2)^0,f,c
  2197   002000  363C               	rlcf	(___fltol@f1+3)^0,f,c
  2198   002002  0642               	decf	___fltol@exp1^0,f,c
  2199   002004                     l6190:
  2200   002004  5042               	movf	___fltol@exp1^0,w,c
  2201   002006  A4D8               	btfss	status,2,c
  2202   002008  EF08  F010         	goto	u4961
  2203   00200C  EF0A  F010         	goto	u4960
  2204   002010                     u4961:
  2205   002010  EFFC  F00F         	goto	l6188
  2206   002014                     u4960:
  2207   002014                     l6192:
  2208   002014  5041               	movf	___fltol@sign1^0,w,c
  2209   002016  B4D8               	btfsc	status,2,c
  2210   002018  EF10  F010         	goto	u4971
  2211   00201C  EF12  F010         	goto	u4970
  2212   002020                     u4971:
  2213   002020  EF1A  F010         	goto	l6196
  2214   002024                     u4970:
  2215   002024  1E3C               	comf	(___fltol@f1+3)^0,f,c
  2216   002026  1E3B               	comf	(___fltol@f1+2)^0,f,c
  2217   002028  1E3A               	comf	(___fltol@f1+1)^0,f,c
  2218   00202A  6C39               	negf	___fltol@f1^0,c
  2219   00202C  0E00               	movlw	0
  2220   00202E  223A               	addwfc	(___fltol@f1+1)^0,f,c
  2221   002030  223B               	addwfc	(___fltol@f1+2)^0,f,c
  2222   002032  223C               	addwfc	(___fltol@f1+3)^0,f,c
  2223   002034                     l6196:
  2224   002034  C039  F039         	movff	___fltol@f1,?___fltol
  2225   002038  C03A  F03A         	movff	___fltol@f1+1,?___fltol+1
  2226   00203C  C03B  F03B         	movff	___fltol@f1+2,?___fltol+2
  2227   002040  C03C  F03C         	movff	___fltol@f1+3,?___fltol+3
  2228   002044                     l2173:
  2229   002044  0012               	return		;funcret
  2230   002046                     __end_of___fltol:
  2231                           	callstack 0
  2232                           
  2233 ;; *************** function ___fldiv *****************
  2234 ;; Defined at:
  2235 ;;		line 11 in file "C:\Program Files\Microchip\xc8\v2.40\pic\sources\c99\common\sprcdiv.c"
  2236 ;; Parameters:    Size  Location     Type
  2237 ;;  b               4   15[COMRAM] long 
  2238 ;;  a               4   19[COMRAM] long 
  2239 ;; Auto vars:     Size  Location     Type
  2240 ;;  grs             4   34[COMRAM] unsigned long 
  2241 ;;  rem             4   27[COMRAM] unsigned long 
  2242 ;;  new_exp         2   32[COMRAM] short 
  2243 ;;  aexp            1   39[COMRAM] unsigned char 
  2244 ;;  bexp            1   38[COMRAM] unsigned char 
  2245 ;;  sign            1   31[COMRAM] unsigned char 
  2246 ;; Return value:  Size  Location     Type
  2247 ;;                  4   15[COMRAM] unsigned char 
  2248 ;; Registers used:
  2249 ;;		wreg, status,2, status,0
  2250 ;; Tracked objects:
  2251 ;;		On entry : 0/0
  2252 ;;		On exit  : 0/0
  2253 ;;		Unchanged: 0/0
  2254 ;; Data sizes:     COMRAM   BANK0   BANK1   BANK2   BANK3   BANK4   BANK5   BANK6   BANK7   BANK8   BANK9  BANK10  BANK1
      +1  BANK12  BANK13  BANK14  BANK15
  2255 ;;      Params:         8       0       0       0       0       0       0       0       0       0       0       0       
      +0       0       0       0       0
  2256 ;;      Locals:        13       0       0       0       0       0       0       0       0       0       0       0       
      +0       0       0       0       0
  2257 ;;      Temps:          4       0       0       0       0       0       0       0       0       0       0       0       
      +0       0       0       0       0
  2258 ;;      Totals:        25       0       0       0       0       0       0       0       0       0       0       0       
      +0       0       0       0       0
  2259 ;;Total ram usage:       25 bytes
  2260 ;; Hardware stack levels used: 1
  2261 ;; Hardware stack levels required when called: 2
  2262 ;; This function calls:
  2263 ;;		Nothing
  2264 ;; This function is called by:
  2265 ;;		_I2C_Master_Mode_Clock_Configurations
  2266 ;;		_CCP_PWM_Set_Duty
  2267 ;;		_CCP_PWM_Mode_Config
  2268 ;;		_EUSART_Baud_Rate_Calculation
  2269 ;; This function uses a non-reentrant model
  2270 ;;
  2271                           
  2272                           	psect	text12
  2273   0018AC                     __ptext12:
  2274                           	callstack 0
  2275   0018AC                     ___fldiv:
  2276                           	callstack 26
  2277   0018AC  5013               	movf	(___fldiv@b+3)^0,w,c
  2278   0018AE  0B80               	andlw	128
  2279   0018B0  6E20               	movwf	___fldiv@sign^0,c
  2280   0018B2  5013               	movf	(___fldiv@b+3)^0,w,c
  2281   0018B4  2413               	addwf	(___fldiv@b+3)^0,w,c
  2282   0018B6  6E27               	movwf	___fldiv@bexp^0,c
  2283   0018B8  AE12               	btfss	(___fldiv@b+2)^0,7,c
  2284   0018BA  EF61  F00C         	goto	u4681
  2285   0018BE  EF63  F00C         	goto	u4680
  2286   0018C2                     u4681:
  2287   0018C2  EF64  F00C         	goto	l6024
  2288   0018C6                     u4680:
  2289   0018C6  8027               	bsf	___fldiv@bexp^0,0,c
  2290   0018C8                     l6024:
  2291   0018C8  5027               	movf	___fldiv@bexp^0,w,c
  2292   0018CA  B4D8               	btfsc	status,2,c
  2293   0018CC  EF6A  F00C         	goto	u4691
  2294   0018D0  EF6C  F00C         	goto	u4690
  2295   0018D4                     u4691:
  2296   0018D4  EF81  F00C         	goto	l6034
  2297   0018D8                     u4690:
  2298   0018D8  2827               	incf	___fldiv@bexp^0,w,c
  2299   0018DA  A4D8               	btfss	status,2,c
  2300   0018DC  EF72  F00C         	goto	u4701
  2301   0018E0  EF74  F00C         	goto	u4700
  2302   0018E4                     u4701:
  2303   0018E4  EF7C  F00C         	goto	l6030
  2304   0018E8                     u4700:
  2305   0018E8  0E00               	movlw	0
  2306   0018EA  6E10               	movwf	___fldiv@b^0,c
  2307   0018EC  0E00               	movlw	0
  2308   0018EE  6E11               	movwf	(___fldiv@b+1)^0,c
  2309   0018F0  0E00               	movlw	0
  2310   0018F2  6E12               	movwf	(___fldiv@b+2)^0,c
  2311   0018F4  0E00               	movlw	0
  2312   0018F6  6E13               	movwf	(___fldiv@b+3)^0,c
  2313   0018F8                     l6030:
  2314   0018F8  8E12               	bsf	(___fldiv@b+2)^0,7,c
  2315   0018FA  0E00               	movlw	0
  2316   0018FC  6E13               	movwf	(___fldiv@b+3)^0,c
  2317   0018FE  EF89  F00C         	goto	l6036
  2318   001902                     l6034:
  2319   001902  0E00               	movlw	0
  2320   001904  6E10               	movwf	___fldiv@b^0,c
  2321   001906  0E00               	movlw	0
  2322   001908  6E11               	movwf	(___fldiv@b+1)^0,c
  2323   00190A  0E00               	movlw	0
  2324   00190C  6E12               	movwf	(___fldiv@b+2)^0,c
  2325   00190E  0E00               	movlw	0
  2326   001910  6E13               	movwf	(___fldiv@b+3)^0,c
  2327   001912                     l6036:
  2328   001912  5017               	movf	(___fldiv@a+3)^0,w,c
  2329   001914  0B80               	andlw	128
  2330   001916  1A20               	xorwf	___fldiv@sign^0,f,c
  2331   001918  5017               	movf	(___fldiv@a+3)^0,w,c
  2332   00191A  2417               	addwf	(___fldiv@a+3)^0,w,c
  2333   00191C  6E28               	movwf	___fldiv@aexp^0,c
  2334   00191E  AE16               	btfss	(___fldiv@a+2)^0,7,c
  2335   001920  EF94  F00C         	goto	u4711
  2336   001924  EF96  F00C         	goto	u4710
  2337   001928                     u4711:
  2338   001928  EF97  F00C         	goto	l6044
  2339   00192C                     u4710:
  2340   00192C  8028               	bsf	___fldiv@aexp^0,0,c
  2341   00192E                     l6044:
  2342   00192E  5028               	movf	___fldiv@aexp^0,w,c
  2343   001930  B4D8               	btfsc	status,2,c
  2344   001932  EF9D  F00C         	goto	u4721
  2345   001936  EF9F  F00C         	goto	u4720
  2346   00193A                     u4721:
  2347   00193A  EFB4  F00C         	goto	l6054
  2348   00193E                     u4720:
  2349   00193E  2828               	incf	___fldiv@aexp^0,w,c
  2350   001940  A4D8               	btfss	status,2,c
  2351   001942  EFA5  F00C         	goto	u4731
  2352   001946  EFA7  F00C         	goto	u4730
  2353   00194A                     u4731:
  2354   00194A  EFAF  F00C         	goto	l6050
  2355   00194E                     u4730:
  2356   00194E  0E00               	movlw	0
  2357   001950  6E14               	movwf	___fldiv@a^0,c
  2358   001952  0E00               	movlw	0
  2359   001954  6E15               	movwf	(___fldiv@a+1)^0,c
  2360   001956  0E00               	movlw	0
  2361   001958  6E16               	movwf	(___fldiv@a+2)^0,c
  2362   00195A  0E00               	movlw	0
  2363   00195C  6E17               	movwf	(___fldiv@a+3)^0,c
  2364   00195E                     l6050:
  2365   00195E  8E16               	bsf	(___fldiv@a+2)^0,7,c
  2366   001960  0E00               	movlw	0
  2367   001962  6E17               	movwf	(___fldiv@a+3)^0,c
  2368   001964  EFBC  F00C         	goto	l6056
  2369   001968                     l6054:
  2370   001968  0E00               	movlw	0
  2371   00196A  6E14               	movwf	___fldiv@a^0,c
  2372   00196C  0E00               	movlw	0
  2373   00196E  6E15               	movwf	(___fldiv@a+1)^0,c
  2374   001970  0E00               	movlw	0
  2375   001972  6E16               	movwf	(___fldiv@a+2)^0,c
  2376   001974  0E00               	movlw	0
  2377   001976  6E17               	movwf	(___fldiv@a+3)^0,c
  2378   001978                     l6056:
  2379   001978  5014               	movf	___fldiv@a^0,w,c
  2380   00197A  1015               	iorwf	(___fldiv@a+1)^0,w,c
  2381   00197C  1016               	iorwf	(___fldiv@a+2)^0,w,c
  2382   00197E  1017               	iorwf	(___fldiv@a+3)^0,w,c
  2383   001980  A4D8               	btfss	status,2,c
  2384   001982  EFC5  F00C         	goto	u4741
  2385   001986  EFC7  F00C         	goto	u4740
  2386   00198A                     u4741:
  2387   00198A  EFDF  F00C         	goto	l6068
  2388   00198E                     u4740:
  2389   00198E  0E00               	movlw	0
  2390   001990  6E10               	movwf	___fldiv@b^0,c
  2391   001992  0E00               	movlw	0
  2392   001994  6E11               	movwf	(___fldiv@b+1)^0,c
  2393   001996  0E00               	movlw	0
  2394   001998  6E12               	movwf	(___fldiv@b+2)^0,c
  2395   00199A  0E00               	movlw	0
  2396   00199C  6E13               	movwf	(___fldiv@b+3)^0,c
  2397   00199E  0E80               	movlw	128
  2398   0019A0  1212               	iorwf	(___fldiv@b+2)^0,f,c
  2399   0019A2  0E7F               	movlw	127
  2400   0019A4  1213               	iorwf	(___fldiv@b+3)^0,f,c
  2401   0019A6                     l6062:
  2402   0019A6  5020               	movf	___fldiv@sign^0,w,c
  2403   0019A8  1213               	iorwf	(___fldiv@b+3)^0,f,c
  2404   0019AA  C010  F010         	movff	___fldiv@b,?___fldiv
  2405   0019AE  C011  F011         	movff	___fldiv@b+1,?___fldiv+1
  2406   0019B2  C012  F012         	movff	___fldiv@b+2,?___fldiv+2
  2407   0019B6  C013  F013         	movff	___fldiv@b+3,?___fldiv+3
  2408   0019BA  EF22  F00E         	goto	l2458
  2409   0019BE                     l6068:
  2410   0019BE  5027               	movf	___fldiv@bexp^0,w,c
  2411   0019C0  A4D8               	btfss	status,2,c
  2412   0019C2  EFE5  F00C         	goto	u4751
  2413   0019C6  EFE7  F00C         	goto	u4750
  2414   0019CA                     u4751:
  2415   0019CA  EFF1  F00C         	goto	l6076
  2416   0019CE                     u4750:
  2417   0019CE  0E00               	movlw	0
  2418   0019D0  6E10               	movwf	?___fldiv^0,c
  2419   0019D2  0E00               	movlw	0
  2420   0019D4  6E11               	movwf	(?___fldiv+1)^0,c
  2421   0019D6  0E00               	movlw	0
  2422   0019D8  6E12               	movwf	(?___fldiv+2)^0,c
  2423   0019DA  0E00               	movlw	0
  2424   0019DC  6E13               	movwf	(?___fldiv+3)^0,c
  2425   0019DE  EF22  F00E         	goto	l2458
  2426   0019E2                     l6076:
  2427   0019E2  5028               	movf	___fldiv@aexp^0,w,c
  2428   0019E4  C027  F018         	movff	___fldiv@bexp,??___fldiv
  2429   0019E8  6A19               	clrf	(??___fldiv+1)^0,c
  2430   0019EA  5E18               	subwf	??___fldiv^0,f,c
  2431   0019EC  0E00               	movlw	0
  2432   0019EE  5A19               	subwfb	(??___fldiv+1)^0,f,c
  2433   0019F0  0E7F               	movlw	127
  2434   0019F2  2418               	addwf	??___fldiv^0,w,c
  2435   0019F4  6E21               	movwf	___fldiv@new_exp^0,c
  2436   0019F6  0E00               	movlw	0
  2437   0019F8  2019               	addwfc	(??___fldiv+1)^0,w,c
  2438   0019FA  6E22               	movwf	(___fldiv@new_exp+1)^0,c
  2439   0019FC  C010  F01C         	movff	___fldiv@b,___fldiv@rem
  2440   001A00  C011  F01D         	movff	___fldiv@b+1,___fldiv@rem+1
  2441   001A04  C012  F01E         	movff	___fldiv@b+2,___fldiv@rem+2
  2442   001A08  C013  F01F         	movff	___fldiv@b+3,___fldiv@rem+3
  2443   001A0C  0E00               	movlw	0
  2444   001A0E  6E10               	movwf	___fldiv@b^0,c
  2445   001A10  0E00               	movlw	0
  2446   001A12  6E11               	movwf	(___fldiv@b+1)^0,c
  2447   001A14  0E00               	movlw	0
  2448   001A16  6E12               	movwf	(___fldiv@b+2)^0,c
  2449   001A18  0E00               	movlw	0
  2450   001A1A  6E13               	movwf	(___fldiv@b+3)^0,c
  2451   001A1C  0E00               	movlw	0
  2452   001A1E  6E23               	movwf	___fldiv@grs^0,c
  2453   001A20  0E00               	movlw	0
  2454   001A22  6E24               	movwf	(___fldiv@grs+1)^0,c
  2455   001A24  0E00               	movlw	0
  2456   001A26  6E25               	movwf	(___fldiv@grs+2)^0,c
  2457   001A28  0E00               	movlw	0
  2458   001A2A  6E26               	movwf	(___fldiv@grs+3)^0,c
  2459   001A2C  0E00               	movlw	0
  2460   001A2E  6E28               	movwf	___fldiv@aexp^0,c
  2461   001A30  EF52  F00D         	goto	l2460
  2462   001A34                     l6086:
  2463   001A34  5028               	movf	___fldiv@aexp^0,w,c
  2464   001A36  B4D8               	btfsc	status,2,c
  2465   001A38  EF20  F00D         	goto	u4761
  2466   001A3C  EF22  F00D         	goto	u4760
  2467   001A40                     u4761:
  2468   001A40  EF39  F00D         	goto	l6094
  2469   001A44                     u4760:
  2470   001A44  90D8               	bcf	status,0,c
  2471   001A46  361C               	rlcf	___fldiv@rem^0,f,c
  2472   001A48  361D               	rlcf	(___fldiv@rem+1)^0,f,c
  2473   001A4A  361E               	rlcf	(___fldiv@rem+2)^0,f,c
  2474   001A4C  361F               	rlcf	(___fldiv@rem+3)^0,f,c
  2475   001A4E  90D8               	bcf	status,0,c
  2476   001A50  3610               	rlcf	___fldiv@b^0,f,c
  2477   001A52  3611               	rlcf	(___fldiv@b+1)^0,f,c
  2478   001A54  3612               	rlcf	(___fldiv@b+2)^0,f,c
  2479   001A56  3613               	rlcf	(___fldiv@b+3)^0,f,c
  2480   001A58  AE26               	btfss	(___fldiv@grs+3)^0,7,c
  2481   001A5A  EF31  F00D         	goto	u4771
  2482   001A5E  EF33  F00D         	goto	u4770
  2483   001A62                     u4771:
  2484   001A62  EF34  F00D         	goto	l2463
  2485   001A66                     u4770:
  2486   001A66  8010               	bsf	___fldiv@b^0,0,c
  2487   001A68                     l2463:
  2488   001A68  90D8               	bcf	status,0,c
  2489   001A6A  3623               	rlcf	___fldiv@grs^0,f,c
  2490   001A6C  3624               	rlcf	(___fldiv@grs+1)^0,f,c
  2491   001A6E  3625               	rlcf	(___fldiv@grs+2)^0,f,c
  2492   001A70  3626               	rlcf	(___fldiv@grs+3)^0,f,c
  2493   001A72                     l6094:
  2494   001A72  5014               	movf	___fldiv@a^0,w,c
  2495   001A74  5C1C               	subwf	___fldiv@rem^0,w,c
  2496   001A76  5015               	movf	(___fldiv@a+1)^0,w,c
  2497   001A78  581D               	subwfb	(___fldiv@rem+1)^0,w,c
  2498   001A7A  5016               	movf	(___fldiv@a+2)^0,w,c
  2499   001A7C  581E               	subwfb	(___fldiv@rem+2)^0,w,c
  2500   001A7E  5017               	movf	(___fldiv@a+3)^0,w,c
  2501   001A80  581F               	subwfb	(___fldiv@rem+3)^0,w,c
  2502   001A82  A0D8               	btfss	status,0,c
  2503   001A84  EF46  F00D         	goto	u4781
  2504   001A88  EF48  F00D         	goto	u4780
  2505   001A8C                     u4781:
  2506   001A8C  EF51  F00D         	goto	l6100
  2507   001A90                     u4780:
  2508   001A90  8C26               	bsf	(___fldiv@grs+3)^0,6,c
  2509   001A92  5014               	movf	___fldiv@a^0,w,c
  2510   001A94  5E1C               	subwf	___fldiv@rem^0,f,c
  2511   001A96  5015               	movf	(___fldiv@a+1)^0,w,c
  2512   001A98  5A1D               	subwfb	(___fldiv@rem+1)^0,f,c
  2513   001A9A  5016               	movf	(___fldiv@a+2)^0,w,c
  2514   001A9C  5A1E               	subwfb	(___fldiv@rem+2)^0,f,c
  2515   001A9E  5017               	movf	(___fldiv@a+3)^0,w,c
  2516   001AA0  5A1F               	subwfb	(___fldiv@rem+3)^0,f,c
  2517   001AA2                     l6100:
  2518   001AA2  2A28               	incf	___fldiv@aexp^0,f,c
  2519   001AA4                     l2460:
  2520   001AA4  0E19               	movlw	25
  2521   001AA6  6428               	cpfsgt	___fldiv@aexp^0,c
  2522   001AA8  EF58  F00D         	goto	u4791
  2523   001AAC  EF5A  F00D         	goto	u4790
  2524   001AB0                     u4791:
  2525   001AB0  EF1A  F00D         	goto	l6086
  2526   001AB4                     u4790:
  2527   001AB4  501C               	movf	___fldiv@rem^0,w,c
  2528   001AB6  101D               	iorwf	(___fldiv@rem+1)^0,w,c
  2529   001AB8  101E               	iorwf	(___fldiv@rem+2)^0,w,c
  2530   001ABA  101F               	iorwf	(___fldiv@rem+3)^0,w,c
  2531   001ABC  B4D8               	btfsc	status,2,c
  2532   001ABE  EF63  F00D         	goto	u4801
  2533   001AC2  EF65  F00D         	goto	u4800
  2534   001AC6                     u4801:
  2535   001AC6  EF7D  F00D         	goto	l6112
  2536   001ACA                     u4800:
  2537   001ACA  8023               	bsf	___fldiv@grs^0,0,c
  2538   001ACC  EF7D  F00D         	goto	l6112
  2539   001AD0                     l6106:
  2540   001AD0  90D8               	bcf	status,0,c
  2541   001AD2  3610               	rlcf	___fldiv@b^0,f,c
  2542   001AD4  3611               	rlcf	(___fldiv@b+1)^0,f,c
  2543   001AD6  3612               	rlcf	(___fldiv@b+2)^0,f,c
  2544   001AD8  3613               	rlcf	(___fldiv@b+3)^0,f,c
  2545   001ADA  AE26               	btfss	(___fldiv@grs+3)^0,7,c
  2546   001ADC  EF72  F00D         	goto	u4811
  2547   001AE0  EF74  F00D         	goto	u4810
  2548   001AE4                     u4811:
  2549   001AE4  EF75  F00D         	goto	l2469
  2550   001AE8                     u4810:
  2551   001AE8  8010               	bsf	___fldiv@b^0,0,c
  2552   001AEA                     l2469:
  2553   001AEA  90D8               	bcf	status,0,c
  2554   001AEC  3623               	rlcf	___fldiv@grs^0,f,c
  2555   001AEE  3624               	rlcf	(___fldiv@grs+1)^0,f,c
  2556   001AF0  3625               	rlcf	(___fldiv@grs+2)^0,f,c
  2557   001AF2  3626               	rlcf	(___fldiv@grs+3)^0,f,c
  2558   001AF4  0621               	decf	___fldiv@new_exp^0,f,c
  2559   001AF6  A0D8               	btfss	status,0,c
  2560   001AF8  0622               	decf	(___fldiv@new_exp+1)^0,f,c
  2561   001AFA                     l6112:
  2562   001AFA  AE12               	btfss	(___fldiv@b+2)^0,7,c
  2563   001AFC  EF82  F00D         	goto	u4821
  2564   001B00  EF84  F00D         	goto	u4820
  2565   001B04                     u4821:
  2566   001B04  EF68  F00D         	goto	l6106
  2567   001B08                     u4820:
  2568   001B08  0E00               	movlw	0
  2569   001B0A  6E28               	movwf	___fldiv@aexp^0,c
  2570   001B0C  AE26               	btfss	(___fldiv@grs+3)^0,7,c
  2571   001B0E  EF8B  F00D         	goto	u4831
  2572   001B12  EF8D  F00D         	goto	u4830
  2573   001B16                     u4831:
  2574   001B16  EFB1  F00D         	goto	l2471
  2575   001B1A                     u4830:
  2576   001B1A  0EFF               	movlw	255
  2577   001B1C  1423               	andwf	___fldiv@grs^0,w,c
  2578   001B1E  6E18               	movwf	??___fldiv^0,c
  2579   001B20  0EFF               	movlw	255
  2580   001B22  1424               	andwf	(___fldiv@grs+1)^0,w,c
  2581   001B24  6E19               	movwf	(??___fldiv+1)^0,c
  2582   001B26  0EFF               	movlw	255
  2583   001B28  1425               	andwf	(___fldiv@grs+2)^0,w,c
  2584   001B2A  6E1A               	movwf	(??___fldiv+2)^0,c
  2585   001B2C  0E7F               	movlw	127
  2586   001B2E  1426               	andwf	(___fldiv@grs+3)^0,w,c
  2587   001B30  6E1B               	movwf	(??___fldiv+3)^0,c
  2588   001B32  5018               	movf	??___fldiv^0,w,c
  2589   001B34  1019               	iorwf	(??___fldiv+1)^0,w,c
  2590   001B36  101A               	iorwf	(??___fldiv+2)^0,w,c
  2591   001B38  101B               	iorwf	(??___fldiv+3)^0,w,c
  2592   001B3A  B4D8               	btfsc	status,2,c
  2593   001B3C  EFA2  F00D         	goto	u4841
  2594   001B40  EFA4  F00D         	goto	u4840
  2595   001B44                     u4841:
  2596   001B44  EFA8  F00D         	goto	l2472
  2597   001B48                     u4840:
  2598   001B48                     l6120:
  2599   001B48  0E01               	movlw	1
  2600   001B4A  6E28               	movwf	___fldiv@aexp^0,c
  2601   001B4C  EFB1  F00D         	goto	l2471
  2602   001B50                     l2472:
  2603   001B50  A010               	btfss	___fldiv@b^0,0,c
  2604   001B52  EFAD  F00D         	goto	u4851
  2605   001B56  EFAF  F00D         	goto	u4850
  2606   001B5A                     u4851:
  2607   001B5A  EFB1  F00D         	goto	l2471
  2608   001B5E                     u4850:
  2609   001B5E  EFA4  F00D         	goto	l6120
  2610   001B62                     l2471:
  2611   001B62  5028               	movf	___fldiv@aexp^0,w,c
  2612   001B64  B4D8               	btfsc	status,2,c
  2613   001B66  EFB7  F00D         	goto	u4861
  2614   001B6A  EFB9  F00D         	goto	u4860
  2615   001B6E                     u4861:
  2616   001B6E  EFDD  F00D         	goto	l6132
  2617   001B72                     u4860:
  2618   001B72  0E01               	movlw	1
  2619   001B74  2610               	addwf	___fldiv@b^0,f,c
  2620   001B76  0E00               	movlw	0
  2621   001B78  2211               	addwfc	(___fldiv@b+1)^0,f,c
  2622   001B7A  2212               	addwfc	(___fldiv@b+2)^0,f,c
  2623   001B7C  2213               	addwfc	(___fldiv@b+3)^0,f,c
  2624   001B7E  A013               	btfss	(___fldiv@b+3)^0,0,c
  2625   001B80  EFC4  F00D         	goto	u4871
  2626   001B84  EFC6  F00D         	goto	u4870
  2627   001B88                     u4871:
  2628   001B88  EFDD  F00D         	goto	l6132
  2629   001B8C                     u4870:
  2630   001B8C  C010  F018         	movff	___fldiv@b,??___fldiv
  2631   001B90  C011  F019         	movff	___fldiv@b+1,??___fldiv+1
  2632   001B94  C012  F01A         	movff	___fldiv@b+2,??___fldiv+2
  2633   001B98  C013  F01B         	movff	___fldiv@b+3,??___fldiv+3
  2634   001B9C  341B               	rlcf	(??___fldiv+3)^0,w,c
  2635   001B9E  321B               	rrcf	(??___fldiv+3)^0,f,c
  2636   001BA0  321A               	rrcf	(??___fldiv+2)^0,f,c
  2637   001BA2  3219               	rrcf	(??___fldiv+1)^0,f,c
  2638   001BA4  3218               	rrcf	??___fldiv^0,f,c
  2639   001BA6  C018  F010         	movff	??___fldiv,___fldiv@b
  2640   001BAA  C019  F011         	movff	??___fldiv+1,___fldiv@b+1
  2641   001BAE  C01A  F012         	movff	??___fldiv+2,___fldiv@b+2
  2642   001BB2  C01B  F013         	movff	??___fldiv+3,___fldiv@b+3
  2643   001BB6  4A21               	infsnz	___fldiv@new_exp^0,f,c
  2644   001BB8  2A22               	incf	(___fldiv@new_exp+1)^0,f,c
  2645   001BBA                     l6132:
  2646   001BBA  BE22               	btfsc	(___fldiv@new_exp+1)^0,7,c
  2647   001BBC  EFE8  F00D         	goto	u4881
  2648   001BC0  5022               	movf	(___fldiv@new_exp+1)^0,w,c
  2649   001BC2  E108               	bnz	u4880
  2650   001BC4  2821               	incf	___fldiv@new_exp^0,w,c
  2651   001BC6  A0D8               	btfss	status,0,c
  2652   001BC8  EFE8  F00D         	goto	u4881
  2653   001BCC  EFEA  F00D         	goto	u4880
  2654   001BD0                     u4881:
  2655   001BD0  EFF5  F00D         	goto	l6136
  2656   001BD4                     u4880:
  2657   001BD4  0E00               	movlw	0
  2658   001BD6  6E22               	movwf	(___fldiv@new_exp+1)^0,c
  2659   001BD8  6821               	setf	___fldiv@new_exp^0,c
  2660   001BDA  0E00               	movlw	0
  2661   001BDC  6E10               	movwf	___fldiv@b^0,c
  2662   001BDE  0E00               	movlw	0
  2663   001BE0  6E11               	movwf	(___fldiv@b+1)^0,c
  2664   001BE2  0E00               	movlw	0
  2665   001BE4  6E12               	movwf	(___fldiv@b+2)^0,c
  2666   001BE6  0E00               	movlw	0
  2667   001BE8  6E13               	movwf	(___fldiv@b+3)^0,c
  2668   001BEA                     l6136:
  2669   001BEA  BE22               	btfsc	(___fldiv@new_exp+1)^0,7,c
  2670   001BEC  EF02  F00E         	goto	u4890
  2671   001BF0  5022               	movf	(___fldiv@new_exp+1)^0,w,c
  2672   001BF2  E106               	bnz	u4891
  2673   001BF4  0421               	decf	___fldiv@new_exp^0,w,c
  2674   001BF6  B0D8               	btfsc	status,0,c
  2675   001BF8  EF00  F00E         	goto	u4891
  2676   001BFC  EF02  F00E         	goto	u4890
  2677   001C00                     u4891:
  2678   001C00  EF10  F00E         	goto	l6140
  2679   001C04                     u4890:
  2680   001C04  0E00               	movlw	0
  2681   001C06  6E22               	movwf	(___fldiv@new_exp+1)^0,c
  2682   001C08  0E00               	movlw	0
  2683   001C0A  6E21               	movwf	___fldiv@new_exp^0,c
  2684   001C0C  0E00               	movlw	0
  2685   001C0E  6E10               	movwf	___fldiv@b^0,c
  2686   001C10  0E00               	movlw	0
  2687   001C12  6E11               	movwf	(___fldiv@b+1)^0,c
  2688   001C14  0E00               	movlw	0
  2689   001C16  6E12               	movwf	(___fldiv@b+2)^0,c
  2690   001C18  0E00               	movlw	0
  2691   001C1A  6E13               	movwf	(___fldiv@b+3)^0,c
  2692   001C1C  0E00               	movlw	0
  2693   001C1E  6E20               	movwf	___fldiv@sign^0,c
  2694   001C20                     l6140:
  2695   001C20  C021  F027         	movff	___fldiv@new_exp,___fldiv@bexp
  2696   001C24  A027               	btfss	___fldiv@bexp^0,0,c
  2697   001C26  EF17  F00E         	goto	u4901
  2698   001C2A  EF19  F00E         	goto	u4900
  2699   001C2E                     u4901:
  2700   001C2E  EF1C  F00E         	goto	l6146
  2701   001C32                     u4900:
  2702   001C32  8E12               	bsf	(___fldiv@b+2)^0,7,c
  2703   001C34  EF1D  F00E         	goto	l6148
  2704   001C38                     l6146:
  2705   001C38  9E12               	bcf	(___fldiv@b+2)^0,7,c
  2706   001C3A                     l6148:
  2707   001C3A  90D8               	bcf	status,0,c
  2708   001C3C  3027               	rrcf	___fldiv@bexp^0,w,c
  2709   001C3E  6E13               	movwf	(___fldiv@b+3)^0,c
  2710   001C40  EFD3  F00C         	goto	l6062
  2711   001C44                     l2458:
  2712   001C44  0012               	return		;funcret
  2713   001C46                     __end_of___fldiv:
  2714                           	callstack 0
  2715                           
  2716 ;; *************** function ___fladd *****************
  2717 ;; Defined at:
  2718 ;;		line 10 in file "C:\Program Files\Microchip\xc8\v2.40\pic\sources\c99\common\sprcadd.c"
  2719 ;; Parameters:    Size  Location     Type
  2720 ;;  b               4   40[COMRAM] unsigned char 
  2721 ;;  a               4   44[COMRAM] unsigned char 
  2722 ;; Auto vars:     Size  Location     Type
  2723 ;;  grs             1   55[COMRAM] unsigned char 
  2724 ;;  bexp            1   54[COMRAM] unsigned char 
  2725 ;;  aexp            1   53[COMRAM] unsigned char 
  2726 ;;  signs           1   52[COMRAM] unsigned char 
  2727 ;; Return value:  Size  Location     Type
  2728 ;;                  4   40[COMRAM] unsigned char 
  2729 ;; Registers used:
  2730 ;;		wreg, status,2, status,0
  2731 ;; Tracked objects:
  2732 ;;		On entry : 0/0
  2733 ;;		On exit  : 0/0
  2734 ;;		Unchanged: 0/0
  2735 ;; Data sizes:     COMRAM   BANK0   BANK1   BANK2   BANK3   BANK4   BANK5   BANK6   BANK7   BANK8   BANK9  BANK10  BANK1
      +1  BANK12  BANK13  BANK14  BANK15
  2736 ;;      Params:         8       0       0       0       0       0       0       0       0       0       0       0       
      +0       0       0       0       0
  2737 ;;      Locals:         4       0       0       0       0       0       0       0       0       0       0       0       
      +0       0       0       0       0
  2738 ;;      Temps:          4       0       0       0       0       0       0       0       0       0       0       0       
      +0       0       0       0       0
  2739 ;;      Totals:        16       0       0       0       0       0       0       0       0       0       0       0       
      +0       0       0       0       0
  2740 ;;Total ram usage:       16 bytes
  2741 ;; Hardware stack levels used: 1
  2742 ;; Hardware stack levels required when called: 2
  2743 ;; This function calls:
  2744 ;;		Nothing
  2745 ;; This function is called by:
  2746 ;;		_I2C_Master_Mode_Clock_Configurations
  2747 ;;		_CCP_PWM_Mode_Config
  2748 ;;		_EUSART_Baud_Rate_Calculation
  2749 ;; This function uses a non-reentrant model
  2750 ;;
  2751                           
  2752                           	psect	text13
  2753   001016                     __ptext13:
  2754                           	callstack 0
  2755   001016                     ___fladd:
  2756                           	callstack 26
  2757   001016  502C               	movf	(___fladd@b+3)^0,w,c
  2758   001018  0B80               	andlw	128
  2759   00101A  6E35               	movwf	___fladd@signs^0,c
  2760   00101C  502C               	movf	(___fladd@b+3)^0,w,c
  2761   00101E  242C               	addwf	(___fladd@b+3)^0,w,c
  2762   001020  6E37               	movwf	___fladd@bexp^0,c
  2763   001022  AE2B               	btfss	(___fladd@b+2)^0,7,c
  2764   001024  EF16  F008         	goto	u4291
  2765   001028  EF18  F008         	goto	u4290
  2766   00102C                     u4291:
  2767   00102C  EF19  F008         	goto	l5822
  2768   001030                     u4290:
  2769   001030  8037               	bsf	___fladd@bexp^0,0,c
  2770   001032                     l5822:
  2771   001032  5037               	movf	___fladd@bexp^0,w,c
  2772   001034  B4D8               	btfsc	status,2,c
  2773   001036  EF1F  F008         	goto	u4301
  2774   00103A  EF21  F008         	goto	u4300
  2775   00103E                     u4301:
  2776   00103E  EF36  F008         	goto	l5832
  2777   001042                     u4300:
  2778   001042  2837               	incf	___fladd@bexp^0,w,c
  2779   001044  A4D8               	btfss	status,2,c
  2780   001046  EF27  F008         	goto	u4311
  2781   00104A  EF29  F008         	goto	u4310
  2782   00104E                     u4311:
  2783   00104E  EF31  F008         	goto	l5828
  2784   001052                     u4310:
  2785   001052  0E00               	movlw	0
  2786   001054  6E29               	movwf	___fladd@b^0,c
  2787   001056  0E00               	movlw	0
  2788   001058  6E2A               	movwf	(___fladd@b+1)^0,c
  2789   00105A  0E00               	movlw	0
  2790   00105C  6E2B               	movwf	(___fladd@b+2)^0,c
  2791   00105E  0E00               	movlw	0
  2792   001060  6E2C               	movwf	(___fladd@b+3)^0,c
  2793   001062                     l5828:
  2794   001062  8E2B               	bsf	(___fladd@b+2)^0,7,c
  2795   001064  0E00               	movlw	0
  2796   001066  6E2C               	movwf	(___fladd@b+3)^0,c
  2797   001068  EF3E  F008         	goto	l5834
  2798   00106C                     l5832:
  2799   00106C  0E00               	movlw	0
  2800   00106E  6E29               	movwf	___fladd@b^0,c
  2801   001070  0E00               	movlw	0
  2802   001072  6E2A               	movwf	(___fladd@b+1)^0,c
  2803   001074  0E00               	movlw	0
  2804   001076  6E2B               	movwf	(___fladd@b+2)^0,c
  2805   001078  0E00               	movlw	0
  2806   00107A  6E2C               	movwf	(___fladd@b+3)^0,c
  2807   00107C                     l5834:
  2808   00107C  5030               	movf	(___fladd@a+3)^0,w,c
  2809   00107E  0B80               	andlw	128
  2810   001080  6E36               	movwf	___fladd@aexp^0,c
  2811   001082  5035               	movf	___fladd@signs^0,w,c
  2812   001084  1836               	xorwf	___fladd@aexp^0,w,c
  2813   001086  B4D8               	btfsc	status,2,c
  2814   001088  EF48  F008         	goto	u4321
  2815   00108C  EF4A  F008         	goto	u4320
  2816   001090                     u4321:
  2817   001090  EF4B  F008         	goto	l5840
  2818   001094                     u4320:
  2819   001094  8C35               	bsf	___fladd@signs^0,6,c
  2820   001096                     l5840:
  2821   001096  5030               	movf	(___fladd@a+3)^0,w,c
  2822   001098  2430               	addwf	(___fladd@a+3)^0,w,c
  2823   00109A  6E36               	movwf	___fladd@aexp^0,c
  2824   00109C  AE2F               	btfss	(___fladd@a+2)^0,7,c
  2825   00109E  EF53  F008         	goto	u4331
  2826   0010A2  EF55  F008         	goto	u4330
  2827   0010A6                     u4331:
  2828   0010A6  EF56  F008         	goto	l5846
  2829   0010AA                     u4330:
  2830   0010AA  8036               	bsf	___fladd@aexp^0,0,c
  2831   0010AC                     l5846:
  2832   0010AC  5036               	movf	___fladd@aexp^0,w,c
  2833   0010AE  B4D8               	btfsc	status,2,c
  2834   0010B0  EF5C  F008         	goto	u4341
  2835   0010B4  EF5E  F008         	goto	u4340
  2836   0010B8                     u4341:
  2837   0010B8  EF73  F008         	goto	l5856
  2838   0010BC                     u4340:
  2839   0010BC  2836               	incf	___fladd@aexp^0,w,c
  2840   0010BE  A4D8               	btfss	status,2,c
  2841   0010C0  EF64  F008         	goto	u4351
  2842   0010C4  EF66  F008         	goto	u4350
  2843   0010C8                     u4351:
  2844   0010C8  EF6E  F008         	goto	l5852
  2845   0010CC                     u4350:
  2846   0010CC  0E00               	movlw	0
  2847   0010CE  6E2D               	movwf	___fladd@a^0,c
  2848   0010D0  0E00               	movlw	0
  2849   0010D2  6E2E               	movwf	(___fladd@a+1)^0,c
  2850   0010D4  0E00               	movlw	0
  2851   0010D6  6E2F               	movwf	(___fladd@a+2)^0,c
  2852   0010D8  0E00               	movlw	0
  2853   0010DA  6E30               	movwf	(___fladd@a+3)^0,c
  2854   0010DC                     l5852:
  2855   0010DC  8E2F               	bsf	(___fladd@a+2)^0,7,c
  2856   0010DE  0E00               	movlw	0
  2857   0010E0  6E30               	movwf	(___fladd@a+3)^0,c
  2858   0010E2  EF7B  F008         	goto	l5858
  2859   0010E6                     l5856:
  2860   0010E6  0E00               	movlw	0
  2861   0010E8  6E2D               	movwf	___fladd@a^0,c
  2862   0010EA  0E00               	movlw	0
  2863   0010EC  6E2E               	movwf	(___fladd@a+1)^0,c
  2864   0010EE  0E00               	movlw	0
  2865   0010F0  6E2F               	movwf	(___fladd@a+2)^0,c
  2866   0010F2  0E00               	movlw	0
  2867   0010F4  6E30               	movwf	(___fladd@a+3)^0,c
  2868   0010F6                     l5858:
  2869   0010F6  5037               	movf	___fladd@bexp^0,w,c
  2870   0010F8  5C36               	subwf	___fladd@aexp^0,w,c
  2871   0010FA  B0D8               	btfsc	status,0,c
  2872   0010FC  EF82  F008         	goto	u4361
  2873   001100  EF84  F008         	goto	u4360
  2874   001104                     u4361:
  2875   001104  EFAB  F008         	goto	l5894
  2876   001108                     u4360:
  2877   001108  AC35               	btfss	___fladd@signs^0,6,c
  2878   00110A  EF89  F008         	goto	u4371
  2879   00110E  EF8B  F008         	goto	u4370
  2880   001112                     u4371:
  2881   001112  EF8D  F008         	goto	l5864
  2882   001116                     u4370:
  2883   001116  0E80               	movlw	128
  2884   001118  1A35               	xorwf	___fladd@signs^0,f,c
  2885   00111A                     l5864:
  2886   00111A  C037  F038         	movff	___fladd@bexp,___fladd@grs
  2887   00111E  C036  F037         	movff	___fladd@aexp,___fladd@bexp
  2888   001122  C038  F036         	movff	___fladd@grs,___fladd@aexp
  2889   001126  C029  F038         	movff	___fladd@b,___fladd@grs
  2890   00112A  C02D  F029         	movff	___fladd@a,___fladd@b
  2891   00112E  C038  F02D         	movff	___fladd@grs,___fladd@a
  2892   001132  C02A  F038         	movff	___fladd@b+1,___fladd@grs
  2893   001136  C02E  F02A         	movff	___fladd@a+1,___fladd@b+1
  2894   00113A  C038  F02E         	movff	___fladd@grs,___fladd@a+1
  2895   00113E  C02B  F038         	movff	___fladd@b+2,___fladd@grs
  2896   001142  C02F  F02B         	movff	___fladd@a+2,___fladd@b+2
  2897   001146  C038  F02F         	movff	___fladd@grs,___fladd@a+2
  2898   00114A  C02C  F038         	movff	___fladd@b+3,___fladd@grs
  2899   00114E  C030  F02C         	movff	___fladd@a+3,___fladd@b+3
  2900   001152  C038  F030         	movff	___fladd@grs,___fladd@a+3
  2901   001156                     l5894:
  2902   001156  0E00               	movlw	0
  2903   001158  6E38               	movwf	___fladd@grs^0,c
  2904   00115A  5037               	movf	___fladd@bexp^0,w,c
  2905   00115C  C036  F031         	movff	___fladd@aexp,??___fladd
  2906   001160  6A32               	clrf	(??___fladd+1)^0,c
  2907   001162  5E31               	subwf	??___fladd^0,f,c
  2908   001164  0E00               	movlw	0
  2909   001166  5A32               	subwfb	(??___fladd+1)^0,f,c
  2910   001168  BE32               	btfsc	(??___fladd+1)^0,7,c
  2911   00116A  EFC0  F008         	goto	u4381
  2912   00116E  5032               	movf	(??___fladd+1)^0,w,c
  2913   001170  E109               	bnz	u4380
  2914   001172  0E1A               	movlw	26
  2915   001174  5C31               	subwf	??___fladd^0,w,c
  2916   001176  A0D8               	btfss	status,0,c
  2917   001178  EFC0  F008         	goto	u4381
  2918   00117C  EFC2  F008         	goto	u4380
  2919   001180                     u4381:
  2920   001180  EFF9  F008         	goto	l2405
  2921   001184                     u4380:
  2922   001184  5029               	movf	___fladd@b^0,w,c
  2923   001186  102A               	iorwf	(___fladd@b+1)^0,w,c
  2924   001188  102B               	iorwf	(___fladd@b+2)^0,w,c
  2925   00118A  102C               	iorwf	(___fladd@b+3)^0,w,c
  2926   00118C  A4D8               	btfss	status,2,c
  2927   00118E  EFCB  F008         	goto	u4391
  2928   001192  EFCE  F008         	goto	u4390
  2929   001196                     u4391:
  2930   001196  0E01               	movlw	1
  2931   001198  EFCF  F008         	goto	u4400
  2932   00119C                     u4390:
  2933   00119C  0E00               	movlw	0
  2934   00119E                     u4400:
  2935   00119E  6E38               	movwf	___fladd@grs^0,c
  2936   0011A0  0E00               	movlw	0
  2937   0011A2  6E29               	movwf	___fladd@b^0,c
  2938   0011A4  0E00               	movlw	0
  2939   0011A6  6E2A               	movwf	(___fladd@b+1)^0,c
  2940   0011A8  0E00               	movlw	0
  2941   0011AA  6E2B               	movwf	(___fladd@b+2)^0,c
  2942   0011AC  0E00               	movlw	0
  2943   0011AE  6E2C               	movwf	(___fladd@b+3)^0,c
  2944   0011B0  C036  F037         	movff	___fladd@aexp,___fladd@bexp
  2945   0011B4  EF02  F009         	goto	l2404
  2946   0011B8                     l2406:
  2947   0011B8  A038               	btfss	___fladd@grs^0,0,c
  2948   0011BA  EFE1  F008         	goto	u4411
  2949   0011BE  EFE3  F008         	goto	u4410
  2950   0011C2                     u4411:
  2951   0011C2  EFE9  F008         	goto	l5906
  2952   0011C6                     u4410:
  2953   0011C6  90D8               	bcf	status,0,c
  2954   0011C8  3038               	rrcf	___fladd@grs^0,w,c
  2955   0011CA  0901               	iorlw	1
  2956   0011CC  6E38               	movwf	___fladd@grs^0,c
  2957   0011CE  EFEB  F008         	goto	l5908
  2958   0011D2                     l5906:
  2959   0011D2  90D8               	bcf	status,0,c
  2960   0011D4  3238               	rrcf	___fladd@grs^0,f,c
  2961   0011D6                     l5908:
  2962   0011D6  A029               	btfss	___fladd@b^0,0,c
  2963   0011D8  EFF0  F008         	goto	u4421
  2964   0011DC  EFF2  F008         	goto	u4420
  2965   0011E0                     u4421:
  2966   0011E0  EFF3  F008         	goto	l5912
  2967   0011E4                     u4420:
  2968   0011E4  8E38               	bsf	___fladd@grs^0,7,c
  2969   0011E6                     l5912:
  2970   0011E6  342C               	rlcf	(___fladd@b+3)^0,w,c
  2971   0011E8  322C               	rrcf	(___fladd@b+3)^0,f,c
  2972   0011EA  322B               	rrcf	(___fladd@b+2)^0,f,c
  2973   0011EC  322A               	rrcf	(___fladd@b+1)^0,f,c
  2974   0011EE  3229               	rrcf	___fladd@b^0,f,c
  2975   0011F0  2A37               	incf	___fladd@bexp^0,f,c
  2976   0011F2                     l2405:
  2977   0011F2  5036               	movf	___fladd@aexp^0,w,c
  2978   0011F4  5C37               	subwf	___fladd@bexp^0,w,c
  2979   0011F6  A0D8               	btfss	status,0,c
  2980   0011F8  EF00  F009         	goto	u4431
  2981   0011FC  EF02  F009         	goto	u4430
  2982   001200                     u4431:
  2983   001200  EFDC  F008         	goto	l2406
  2984   001204                     u4430:
  2985   001204                     l2404:
  2986   001204  BC35               	btfsc	___fladd@signs^0,6,c
  2987   001206  EF07  F009         	goto	u4441
  2988   00120A  EF09  F009         	goto	u4440
  2989   00120E                     u4441:
  2990   00120E  EF49  F009         	goto	l5940
  2991   001212                     u4440:
  2992   001212  5037               	movf	___fladd@bexp^0,w,c
  2993   001214  A4D8               	btfss	status,2,c
  2994   001216  EF0F  F009         	goto	u4451
  2995   00121A  EF11  F009         	goto	u4450
  2996   00121E                     u4451:
  2997   00121E  EF1B  F009         	goto	l5922
  2998   001222                     u4450:
  2999   001222  0E00               	movlw	0
  3000   001224  6E29               	movwf	?___fladd^0,c
  3001   001226  0E00               	movlw	0
  3002   001228  6E2A               	movwf	(?___fladd+1)^0,c
  3003   00122A  0E00               	movlw	0
  3004   00122C  6E2B               	movwf	(?___fladd+2)^0,c
  3005   00122E  0E00               	movlw	0
  3006   001230  6E2C               	movwf	(?___fladd+3)^0,c
  3007   001232  EF6A  F00A         	goto	l2413
  3008   001236                     l5922:
  3009   001236  502D               	movf	___fladd@a^0,w,c
  3010   001238  2629               	addwf	___fladd@b^0,f,c
  3011   00123A  502E               	movf	(___fladd@a+1)^0,w,c
  3012   00123C  222A               	addwfc	(___fladd@b+1)^0,f,c
  3013   00123E  502F               	movf	(___fladd@a+2)^0,w,c
  3014   001240  222B               	addwfc	(___fladd@b+2)^0,f,c
  3015   001242  5030               	movf	(___fladd@a+3)^0,w,c
  3016   001244  222C               	addwfc	(___fladd@b+3)^0,f,c
  3017   001246  A02C               	btfss	(___fladd@b+3)^0,0,c
  3018   001248  EF28  F009         	goto	u4461
  3019   00124C  EF2A  F009         	goto	u4460
  3020   001250                     u4461:
  3021   001250  EFD6  F009         	goto	l5976
  3022   001254                     u4460:
  3023   001254  A038               	btfss	___fladd@grs^0,0,c
  3024   001256  EF2F  F009         	goto	u4471
  3025   00125A  EF31  F009         	goto	u4470
  3026   00125E                     u4471:
  3027   00125E  EF37  F009         	goto	l5930
  3028   001262                     u4470:
  3029   001262  90D8               	bcf	status,0,c
  3030   001264  3038               	rrcf	___fladd@grs^0,w,c
  3031   001266  0901               	iorlw	1
  3032   001268  6E38               	movwf	___fladd@grs^0,c
  3033   00126A  EF39  F009         	goto	l5932
  3034   00126E                     l5930:
  3035   00126E  90D8               	bcf	status,0,c
  3036   001270  3238               	rrcf	___fladd@grs^0,f,c
  3037   001272                     l5932:
  3038   001272  A029               	btfss	___fladd@b^0,0,c
  3039   001274  EF3E  F009         	goto	u4481
  3040   001278  EF40  F009         	goto	u4480
  3041   00127C                     u4481:
  3042   00127C  EF41  F009         	goto	l5936
  3043   001280                     u4480:
  3044   001280  8E38               	bsf	___fladd@grs^0,7,c
  3045   001282                     l5936:
  3046   001282  342C               	rlcf	(___fladd@b+3)^0,w,c
  3047   001284  322C               	rrcf	(___fladd@b+3)^0,f,c
  3048   001286  322B               	rrcf	(___fladd@b+2)^0,f,c
  3049   001288  322A               	rrcf	(___fladd@b+1)^0,f,c
  3050   00128A  3229               	rrcf	___fladd@b^0,f,c
  3051   00128C  2A37               	incf	___fladd@bexp^0,f,c
  3052   00128E  EFD6  F009         	goto	l5976
  3053   001292                     l5940:
  3054   001292  502D               	movf	___fladd@a^0,w,c
  3055   001294  5C29               	subwf	___fladd@b^0,w,c
  3056   001296  502E               	movf	(___fladd@a+1)^0,w,c
  3057   001298  582A               	subwfb	(___fladd@b+1)^0,w,c
  3058   00129A  502F               	movf	(___fladd@a+2)^0,w,c
  3059   00129C  582B               	subwfb	(___fladd@b+2)^0,w,c
  3060   00129E  502C               	movf	(___fladd@b+3)^0,w,c
  3061   0012A0  0A80               	xorlw	128
  3062   0012A2  6E31               	movwf	??___fladd^0,c
  3063   0012A4  5030               	movf	(___fladd@a+3)^0,w,c
  3064   0012A6  0A80               	xorlw	128
  3065   0012A8  5831               	subwfb	??___fladd^0,w,c
  3066   0012AA  B0D8               	btfsc	status,0,c
  3067   0012AC  EF5A  F009         	goto	u4491
  3068   0012B0  EF5C  F009         	goto	u4490
  3069   0012B4                     u4491:
  3070   0012B4  EF87  F009         	goto	l5950
  3071   0012B8                     u4490:
  3072   0012B8  5029               	movf	___fladd@b^0,w,c
  3073   0012BA  5C2D               	subwf	___fladd@a^0,w,c
  3074   0012BC  6E31               	movwf	??___fladd^0,c
  3075   0012BE  502A               	movf	(___fladd@b+1)^0,w,c
  3076   0012C0  582E               	subwfb	(___fladd@a+1)^0,w,c
  3077   0012C2  6E32               	movwf	(??___fladd+1)^0,c
  3078   0012C4  502B               	movf	(___fladd@b+2)^0,w,c
  3079   0012C6  582F               	subwfb	(___fladd@a+2)^0,w,c
  3080   0012C8  6E33               	movwf	(??___fladd+2)^0,c
  3081   0012CA  502C               	movf	(___fladd@b+3)^0,w,c
  3082   0012CC  5830               	subwfb	(___fladd@a+3)^0,w,c
  3083   0012CE  6E34               	movwf	(??___fladd+3)^0,c
  3084   0012D0  0EFF               	movlw	255
  3085   0012D2  2431               	addwf	??___fladd^0,w,c
  3086   0012D4  6E29               	movwf	___fladd@b^0,c
  3087   0012D6  0EFF               	movlw	255
  3088   0012D8  2032               	addwfc	(??___fladd+1)^0,w,c
  3089   0012DA  6E2A               	movwf	(___fladd@b+1)^0,c
  3090   0012DC  0EFF               	movlw	255
  3091   0012DE  2033               	addwfc	(??___fladd+2)^0,w,c
  3092   0012E0  6E2B               	movwf	(___fladd@b+2)^0,c
  3093   0012E2  0EFF               	movlw	255
  3094   0012E4  2034               	addwfc	(??___fladd+3)^0,w,c
  3095   0012E6  6E2C               	movwf	(___fladd@b+3)^0,c
  3096   0012E8  0E80               	movlw	128
  3097   0012EA  1A35               	xorwf	___fladd@signs^0,f,c
  3098   0012EC  6C38               	negf	___fladd@grs^0,c
  3099   0012EE  5038               	movf	___fladd@grs^0,w,c
  3100   0012F0  A4D8               	btfss	status,2,c
  3101   0012F2  EF7D  F009         	goto	u4501
  3102   0012F6  EF7F  F009         	goto	u4500
  3103   0012FA                     u4501:
  3104   0012FA  EF8F  F009         	goto	l2421
  3105   0012FE                     u4500:
  3106   0012FE  0E01               	movlw	1
  3107   001300  2629               	addwf	___fladd@b^0,f,c
  3108   001302  0E00               	movlw	0
  3109   001304  222A               	addwfc	(___fladd@b+1)^0,f,c
  3110   001306  222B               	addwfc	(___fladd@b+2)^0,f,c
  3111   001308  222C               	addwfc	(___fladd@b+3)^0,f,c
  3112   00130A  EF8F  F009         	goto	l2421
  3113   00130E                     l5950:
  3114   00130E  502D               	movf	___fladd@a^0,w,c
  3115   001310  5E29               	subwf	___fladd@b^0,f,c
  3116   001312  502E               	movf	(___fladd@a+1)^0,w,c
  3117   001314  5A2A               	subwfb	(___fladd@b+1)^0,f,c
  3118   001316  502F               	movf	(___fladd@a+2)^0,w,c
  3119   001318  5A2B               	subwfb	(___fladd@b+2)^0,f,c
  3120   00131A  5030               	movf	(___fladd@a+3)^0,w,c
  3121   00131C  5A2C               	subwfb	(___fladd@b+3)^0,f,c
  3122   00131E                     l2421:
  3123   00131E  5029               	movf	___fladd@b^0,w,c
  3124   001320  102A               	iorwf	(___fladd@b+1)^0,w,c
  3125   001322  102B               	iorwf	(___fladd@b+2)^0,w,c
  3126   001324  102C               	iorwf	(___fladd@b+3)^0,w,c
  3127   001326  A4D8               	btfss	status,2,c
  3128   001328  EF98  F009         	goto	u4511
  3129   00132C  EF9A  F009         	goto	u4510
  3130   001330                     u4511:
  3131   001330  EFCF  F009         	goto	l5974
  3132   001334                     u4510:
  3133   001334  5038               	movf	___fladd@grs^0,w,c
  3134   001336  A4D8               	btfss	status,2,c
  3135   001338  EFA0  F009         	goto	u4521
  3136   00133C  EFA2  F009         	goto	u4520
  3137   001340                     u4521:
  3138   001340  EFCF  F009         	goto	l5974
  3139   001344                     u4520:
  3140   001344  0E00               	movlw	0
  3141   001346  6E29               	movwf	?___fladd^0,c
  3142   001348  0E00               	movlw	0
  3143   00134A  6E2A               	movwf	(?___fladd+1)^0,c
  3144   00134C  0E00               	movlw	0
  3145   00134E  6E2B               	movwf	(?___fladd+2)^0,c
  3146   001350  0E00               	movlw	0
  3147   001352  6E2C               	movwf	(?___fladd+3)^0,c
  3148   001354  EF6A  F00A         	goto	l2413
  3149   001358                     l5958:
  3150   001358  90D8               	bcf	status,0,c
  3151   00135A  3629               	rlcf	___fladd@b^0,f,c
  3152   00135C  362A               	rlcf	(___fladd@b+1)^0,f,c
  3153   00135E  362B               	rlcf	(___fladd@b+2)^0,f,c
  3154   001360  362C               	rlcf	(___fladd@b+3)^0,f,c
  3155   001362  AE38               	btfss	___fladd@grs^0,7,c
  3156   001364  EFB6  F009         	goto	u4531
  3157   001368  EFB8  F009         	goto	u4530
  3158   00136C                     u4531:
  3159   00136C  EFB9  F009         	goto	l5964
  3160   001370                     u4530:
  3161   001370  8029               	bsf	___fladd@b^0,0,c
  3162   001372                     l5964:
  3163   001372  A038               	btfss	___fladd@grs^0,0,c
  3164   001374  EFBE  F009         	goto	u4541
  3165   001378  EFC0  F009         	goto	u4540
  3166   00137C                     u4541:
  3167   00137C  EFC4  F009         	goto	l5968
  3168   001380                     u4540:
  3169   001380  80D8               	bsf	status,0,c
  3170   001382  3638               	rlcf	___fladd@grs^0,f,c
  3171   001384  EFC6  F009         	goto	l5970
  3172   001388                     l5968:
  3173   001388  90D8               	bcf	status,0,c
  3174   00138A  3638               	rlcf	___fladd@grs^0,f,c
  3175   00138C                     l5970:
  3176   00138C  5037               	movf	___fladd@bexp^0,w,c
  3177   00138E  B4D8               	btfsc	status,2,c
  3178   001390  EFCC  F009         	goto	u4551
  3179   001394  EFCE  F009         	goto	u4550
  3180   001398                     u4551:
  3181   001398  EFCF  F009         	goto	l5974
  3182   00139C                     u4550:
  3183   00139C  0637               	decf	___fladd@bexp^0,f,c
  3184   00139E                     l5974:
  3185   00139E  AE2B               	btfss	(___fladd@b+2)^0,7,c
  3186   0013A0  EFD4  F009         	goto	u4561
  3187   0013A4  EFD6  F009         	goto	u4560
  3188   0013A8                     u4561:
  3189   0013A8  EFAC  F009         	goto	l5958
  3190   0013AC                     u4560:
  3191   0013AC                     l5976:
  3192   0013AC  0E00               	movlw	0
  3193   0013AE  6E36               	movwf	___fladd@aexp^0,c
  3194   0013B0  AE38               	btfss	___fladd@grs^0,7,c
  3195   0013B2  EFDD  F009         	goto	u4571
  3196   0013B6  EFDF  F009         	goto	u4570
  3197   0013BA                     u4571:
  3198   0013BA  EFF7  F009         	goto	l2430
  3199   0013BE                     u4570:
  3200   0013BE  C038  F031         	movff	___fladd@grs,??___fladd
  3201   0013C2  0E7F               	movlw	127
  3202   0013C4  1631               	andwf	??___fladd^0,f,c
  3203   0013C6  B4D8               	btfsc	status,2,c
  3204   0013C8  EFE8  F009         	goto	u4581
  3205   0013CC  EFEA  F009         	goto	u4580
  3206   0013D0                     u4581:
  3207   0013D0  EFEE  F009         	goto	l2431
  3208   0013D4                     u4580:
  3209   0013D4                     l5982:
  3210   0013D4  0E01               	movlw	1
  3211   0013D6  6E36               	movwf	___fladd@aexp^0,c
  3212   0013D8  EFF7  F009         	goto	l2430
  3213   0013DC                     l2431:
  3214   0013DC  A029               	btfss	___fladd@b^0,0,c
  3215   0013DE  EFF3  F009         	goto	u4591
  3216   0013E2  EFF5  F009         	goto	u4590
  3217   0013E6                     u4591:
  3218   0013E6  EFF7  F009         	goto	l2430
  3219   0013EA                     u4590:
  3220   0013EA  EFEA  F009         	goto	l5982
  3221   0013EE                     l2430:
  3222   0013EE  5036               	movf	___fladd@aexp^0,w,c
  3223   0013F0  B4D8               	btfsc	status,2,c
  3224   0013F2  EFFD  F009         	goto	u4601
  3225   0013F6  EFFF  F009         	goto	u4600
  3226   0013FA                     u4601:
  3227   0013FA  EF2A  F00A         	goto	l5994
  3228   0013FE                     u4600:
  3229   0013FE  0E01               	movlw	1
  3230   001400  2629               	addwf	___fladd@b^0,f,c
  3231   001402  0E00               	movlw	0
  3232   001404  222A               	addwfc	(___fladd@b+1)^0,f,c
  3233   001406  222B               	addwfc	(___fladd@b+2)^0,f,c
  3234   001408  222C               	addwfc	(___fladd@b+3)^0,f,c
  3235   00140A  A02C               	btfss	(___fladd@b+3)^0,0,c
  3236   00140C  EF0A  F00A         	goto	u4611
  3237   001410  EF0C  F00A         	goto	u4610
  3238   001414                     u4611:
  3239   001414  EF2A  F00A         	goto	l5994
  3240   001418                     u4610:
  3241   001418  C029  F031         	movff	___fladd@b,??___fladd
  3242   00141C  C02A  F032         	movff	___fladd@b+1,??___fladd+1
  3243   001420  C02B  F033         	movff	___fladd@b+2,??___fladd+2
  3244   001424  C02C  F034         	movff	___fladd@b+3,??___fladd+3
  3245   001428  3434               	rlcf	(??___fladd+3)^0,w,c
  3246   00142A  3234               	rrcf	(??___fladd+3)^0,f,c
  3247   00142C  3233               	rrcf	(??___fladd+2)^0,f,c
  3248   00142E  3232               	rrcf	(??___fladd+1)^0,f,c
  3249   001430  3231               	rrcf	??___fladd^0,f,c
  3250   001432  C031  F029         	movff	??___fladd,___fladd@b
  3251   001436  C032  F02A         	movff	??___fladd+1,___fladd@b+1
  3252   00143A  C033  F02B         	movff	??___fladd+2,___fladd@b+2
  3253   00143E  C034  F02C         	movff	??___fladd+3,___fladd@b+3
  3254   001442  2837               	incf	___fladd@bexp^0,w,c
  3255   001444  B4D8               	btfsc	status,2,c
  3256   001446  EF27  F00A         	goto	u4621
  3257   00144A  EF29  F00A         	goto	u4620
  3258   00144E                     u4621:
  3259   00144E  EF2A  F00A         	goto	l5994
  3260   001452                     u4620:
  3261   001452  2A37               	incf	___fladd@bexp^0,f,c
  3262   001454                     l5994:
  3263   001454  2837               	incf	___fladd@bexp^0,w,c
  3264   001456  B4D8               	btfsc	status,2,c
  3265   001458  EF30  F00A         	goto	u4631
  3266   00145C  EF32  F00A         	goto	u4630
  3267   001460                     u4631:
  3268   001460  EF3A  F00A         	goto	l5998
  3269   001464                     u4630:
  3270   001464  5037               	movf	___fladd@bexp^0,w,c
  3271   001466  A4D8               	btfss	status,2,c
  3272   001468  EF38  F00A         	goto	u4641
  3273   00146C  EF3A  F00A         	goto	u4640
  3274   001470                     u4641:
  3275   001470  EF4C  F00A         	goto	l6002
  3276   001474                     u4640:
  3277   001474                     l5998:
  3278   001474  0E00               	movlw	0
  3279   001476  6E29               	movwf	___fladd@b^0,c
  3280   001478  0E00               	movlw	0
  3281   00147A  6E2A               	movwf	(___fladd@b+1)^0,c
  3282   00147C  0E00               	movlw	0
  3283   00147E  6E2B               	movwf	(___fladd@b+2)^0,c
  3284   001480  0E00               	movlw	0
  3285   001482  6E2C               	movwf	(___fladd@b+3)^0,c
  3286   001484  5037               	movf	___fladd@bexp^0,w,c
  3287   001486  A4D8               	btfss	status,2,c
  3288   001488  EF48  F00A         	goto	u4651
  3289   00148C  EF4A  F00A         	goto	u4650
  3290   001490                     u4651:
  3291   001490  EF4C  F00A         	goto	l6002
  3292   001494                     u4650:
  3293   001494  0E00               	movlw	0
  3294   001496  6E35               	movwf	___fladd@signs^0,c
  3295   001498                     l6002:
  3296   001498  A037               	btfss	___fladd@bexp^0,0,c
  3297   00149A  EF51  F00A         	goto	u4661
  3298   00149E  EF53  F00A         	goto	u4660
  3299   0014A2                     u4661:
  3300   0014A2  EF56  F00A         	goto	l6006
  3301   0014A6                     u4660:
  3302   0014A6  8E2B               	bsf	(___fladd@b+2)^0,7,c
  3303   0014A8  EF57  F00A         	goto	l6008
  3304   0014AC                     l6006:
  3305   0014AC  9E2B               	bcf	(___fladd@b+2)^0,7,c
  3306   0014AE                     l6008:
  3307   0014AE  90D8               	bcf	status,0,c
  3308   0014B0  3037               	rrcf	___fladd@bexp^0,w,c
  3309   0014B2  6E2C               	movwf	(___fladd@b+3)^0,c
  3310   0014B4  AE35               	btfss	___fladd@signs^0,7,c
  3311   0014B6  EF5F  F00A         	goto	u4671
  3312   0014BA  EF61  F00A         	goto	u4670
  3313   0014BE                     u4671:
  3314   0014BE  EF62  F00A         	goto	l6014
  3315   0014C2                     u4670:
  3316   0014C2  8E2C               	bsf	(___fladd@b+3)^0,7,c
  3317   0014C4                     l6014:
  3318   0014C4  C029  F029         	movff	___fladd@b,?___fladd
  3319   0014C8  C02A  F02A         	movff	___fladd@b+1,?___fladd+1
  3320   0014CC  C02B  F02B         	movff	___fladd@b+2,?___fladd+2
  3321   0014D0  C02C  F02C         	movff	___fladd@b+3,?___fladd+3
  3322   0014D4                     l2413:
  3323   0014D4  0012               	return		;funcret
  3324   0014D6                     __end_of___fladd:
  3325                           	callstack 0
  3326                           
  3327 ;; *************** function _InterruptManager *****************
  3328 ;; Defined at:
  3329 ;;		line 37 in file "MCAL_Layer/Interrupt/mcal_interrupt_manager.c"
  3330 ;; Parameters:    Size  Location     Type
  3331 ;;		None
  3332 ;; Auto vars:     Size  Location     Type
  3333 ;;		None
  3334 ;; Return value:  Size  Location     Type
  3335 ;;                  1    wreg      void 
  3336 ;; Registers used:
  3337 ;;		wreg, status,2, status,0, cstack
  3338 ;; Tracked objects:
  3339 ;;		On entry : 0/0
  3340 ;;		On exit  : 0/0
  3341 ;;		Unchanged: 0/0
  3342 ;; Data sizes:     COMRAM   BANK0   BANK1   BANK2   BANK3   BANK4   BANK5   BANK6   BANK7   BANK8   BANK9  BANK10  BANK1
      +1  BANK12  BANK13  BANK14  BANK15
  3343 ;;      Params:         0       0       0       0       0       0       0       0       0       0       0       0       
      +0       0       0       0       0
  3344 ;;      Locals:         0       0       0       0       0       0       0       0       0       0       0       0       
      +0       0       0       0       0
  3345 ;;      Temps:          0       0       0       0       0       0       0       0       0       0       0       0       
      +0       0       0       0       0
  3346 ;;      Totals:         0       0       0       0       0       0       0       0       0       0       0       0       
      +0       0       0       0       0
  3347 ;;Total ram usage:        0 bytes
  3348 ;; Hardware stack levels used: 1
  3349 ;; Hardware stack levels required when called: 1
  3350 ;; This function calls:
  3351 ;;		_ADC_ISR
  3352 ;;		_CCP1_ISR
  3353 ;;		_CCP2_ISR
  3354 ;;		_INT0_ISR
  3355 ;;		_INT1_ISR
  3356 ;;		_INT2_ISR
  3357 ;;		_MSSP_SPI_ISR
  3358 ;;		_RB4_ISR
  3359 ;;		_RB5_ISR
  3360 ;;		_RB6_ISR
  3361 ;;		_RB7_ISR
  3362 ;;		_TMR0_ISR
  3363 ;;		_TMR1_ISR
  3364 ;;		_TMR2_ISR
  3365 ;;		_TMR3_ISR
  3366 ;; This function is called by:
  3367 ;;		Interrupt level 2
  3368 ;; This function uses a non-reentrant model
  3369 ;;
  3370                           
  3371                           	psect	intcode
  3372   000008                     __pintcode:
  3373                           	callstack 0
  3374   000008                     _InterruptManager:
  3375                           	callstack 26
  3376                           
  3377                           ;incstack = 0
  3378   000008  827E               	bsf	int$flags,1,c	;set compiler interrupt flag (level 2)
  3379   00000A  ED6B  F00A         	call	int_func,f	;refresh shadow registers
  3380                           
  3381                           	psect	intcode_body
  3382   0014D6                     __pintcode_body:
  3383                           	callstack 26
  3384   0014D6                     int_func:
  3385                           	callstack 26
  3386   0014D6  0006               	pop		; remove dummy address from shadow register refresh
  3387   0014D8                     
  3388                           ;MCAL_Layer/Interrupt/mcal_interrupt_manager.c: 42:     if((1 == INTCONbits.INT0IE) && (
      +                          1 == INTCONbits.INT0IF)){
  3389   0014D8  A8F2               	btfss	242,4,c	;volatile
  3390   0014DA  EF71  F00A         	goto	i2u651_41
  3391   0014DE  EF73  F00A         	goto	i2u651_40
  3392   0014E2                     i2u651_41:
  3393   0014E2  EF7C  F00A         	goto	i2l1153
  3394   0014E6                     i2u651_40:
  3395   0014E6  A2F2               	btfss	242,1,c	;volatile
  3396   0014E8  EF78  F00A         	goto	i2u652_41
  3397   0014EC  EF7A  F00A         	goto	i2u652_40
  3398   0014F0                     i2u652_41:
  3399   0014F0  EF7C  F00A         	goto	i2l1153
  3400   0014F4                     i2u652_40:
  3401   0014F4                     
  3402                           ;MCAL_Layer/Interrupt/mcal_interrupt_manager.c: 43:         INT0_ISR();
  3403   0014F4  EC04  F012         	call	_INT0_ISR	;wreg free
  3404   0014F8                     i2l1153:
  3405                           
  3406                           ;MCAL_Layer/Interrupt/mcal_interrupt_manager.c: 46:     if((1 == INTCON3bits.INT1E) && (
      +                          1 == INTCON3bits.INT1F)){
  3407   0014F8  A6F0               	btfss	240,3,c	;volatile
  3408   0014FA  EF81  F00A         	goto	i2u653_41
  3409   0014FE  EF83  F00A         	goto	i2u653_40
  3410   001502                     i2u653_41:
  3411   001502  EF8C  F00A         	goto	i2l1155
  3412   001506                     i2u653_40:
  3413   001506  A0F0               	btfss	240,0,c	;volatile
  3414   001508  EF88  F00A         	goto	i2u654_41
  3415   00150C  EF8A  F00A         	goto	i2u654_40
  3416   001510                     i2u654_41:
  3417   001510  EF8C  F00A         	goto	i2l1155
  3418   001514                     i2u654_40:
  3419   001514                     
  3420                           ;MCAL_Layer/Interrupt/mcal_interrupt_manager.c: 47:         INT1_ISR();
  3421   001514  EC02  F012         	call	_INT1_ISR	;wreg free
  3422   001518                     i2l1155:
  3423                           
  3424                           ;MCAL_Layer/Interrupt/mcal_interrupt_manager.c: 50:     if((1 == INTCON3bits.INT2IE) && 
      +                          (1 == INTCON3bits.INT2IF)){
  3425   001518  A8F0               	btfss	240,4,c	;volatile
  3426   00151A  EF91  F00A         	goto	i2u655_41
  3427   00151E  EF93  F00A         	goto	i2u655_40
  3428   001522                     i2u655_41:
  3429   001522  EF9C  F00A         	goto	i2l1157
  3430   001526                     i2u655_40:
  3431   001526  A2F0               	btfss	240,1,c	;volatile
  3432   001528  EF98  F00A         	goto	i2u656_41
  3433   00152C  EF9A  F00A         	goto	i2u656_40
  3434   001530                     i2u656_41:
  3435   001530  EF9C  F00A         	goto	i2l1157
  3436   001534                     i2u656_40:
  3437   001534                     
  3438                           ;MCAL_Layer/Interrupt/mcal_interrupt_manager.c: 51:         INT2_ISR();
  3439   001534  EC00  F012         	call	_INT2_ISR	;wreg free
  3440   001538                     i2l1157:
  3441                           
  3442                           ;MCAL_Layer/Interrupt/mcal_interrupt_manager.c: 54:     if((1 == PIE1bits.ADIE) && (1 ==
      +                           PIR1bits.ADIF)){
  3443   001538  AC9D               	btfss	157,6,c	;volatile
  3444   00153A  EFA1  F00A         	goto	i2u657_41
  3445   00153E  EFA3  F00A         	goto	i2u657_40
  3446   001542                     i2u657_41:
  3447   001542  EFAC  F00A         	goto	i2l1159
  3448   001546                     i2u657_40:
  3449   001546  AC9E               	btfss	158,6,c	;volatile
  3450   001548  EFA8  F00A         	goto	i2u658_41
  3451   00154C  EFAA  F00A         	goto	i2u658_40
  3452   001550                     i2u658_41:
  3453   001550  EFAC  F00A         	goto	i2l1159
  3454   001554                     i2u658_40:
  3455   001554                     
  3456                           ;MCAL_Layer/Interrupt/mcal_interrupt_manager.c: 55:         ADC_ISR();
  3457   001554  EC0A  F012         	call	_ADC_ISR	;wreg free
  3458   001558                     i2l1159:
  3459                           
  3460                           ;MCAL_Layer/Interrupt/mcal_interrupt_manager.c: 70:     if((1 == INTCONbits.RBIE) && (1 
      +                          == INTCONbits.RBIF) &&
  3461   001558  A6F2               	btfss	242,3,c	;volatile
  3462   00155A  EFB1  F00A         	goto	i2u659_41
  3463   00155E  EFB3  F00A         	goto	i2u659_40
  3464   001562                     i2u659_41:
  3465   001562  EFCE  F00A         	goto	i2l1161
  3466   001566                     i2u659_40:
  3467   001566  A0F2               	btfss	242,0,c	;volatile
  3468   001568  EFB8  F00A         	goto	i2u660_41
  3469   00156C  EFBA  F00A         	goto	i2u660_40
  3470   001570                     i2u660_41:
  3471   001570  EFCE  F00A         	goto	i2l1161
  3472   001574                     i2u660_40:
  3473   001574  A881               	btfss	129,4,c	;volatile
  3474   001576  EFBF  F00A         	goto	i2u661_41
  3475   00157A  EFC1  F00A         	goto	i2u661_40
  3476   00157E                     i2u661_41:
  3477   00157E  EFCE  F00A         	goto	i2l1161
  3478   001582                     i2u661_40:
  3479   001582  0477               	decf	_RB4_Flag^0,w,c	;volatile
  3480   001584  A4D8               	btfss	status,2,c
  3481   001586  EFC7  F00A         	goto	i2u662_41
  3482   00158A  EFC9  F00A         	goto	i2u662_40
  3483   00158E                     i2u662_41:
  3484   00158E  EFCE  F00A         	goto	i2l1161
  3485   001592                     i2u662_40:
  3486   001592                     
  3487                           ;MCAL_Layer/Interrupt/mcal_interrupt_manager.c: 71:        (PORTBbits.RB4 == GPIO_HIGH) 
      +                          && (RB4_Flag == 1)){;MCAL_Layer/Interrupt/mcal_interrupt_manager.c: 72:         RB4_Flag
      +                           = 0;
  3488   001592  0E00               	movlw	0
  3489   001594  6E77               	movwf	_RB4_Flag^0,c	;volatile
  3490   001596                     
  3491                           ;MCAL_Layer/Interrupt/mcal_interrupt_manager.c: 73:         RB4_ISR(0);
  3492   001596  0E00               	movlw	0
  3493   001598  ECCC  F011         	call	_RB4_ISR
  3494   00159C                     i2l1161:
  3495                           
  3496                           ;MCAL_Layer/Interrupt/mcal_interrupt_manager.c: 76:     if((1 == INTCONbits.RBIE) && (1 
      +                          == INTCONbits.RBIF) &&
  3497   00159C  A6F2               	btfss	242,3,c	;volatile
  3498   00159E  EFD3  F00A         	goto	i2u663_41
  3499   0015A2  EFD5  F00A         	goto	i2u663_40
  3500   0015A6                     i2u663_41:
  3501   0015A6  EFF0  F00A         	goto	i2l1163
  3502   0015AA                     i2u663_40:
  3503   0015AA  A0F2               	btfss	242,0,c	;volatile
  3504   0015AC  EFDA  F00A         	goto	i2u664_41
  3505   0015B0  EFDC  F00A         	goto	i2u664_40
  3506   0015B4                     i2u664_41:
  3507   0015B4  EFF0  F00A         	goto	i2l1163
  3508   0015B8                     i2u664_40:
  3509   0015B8  B881               	btfsc	129,4,c	;volatile
  3510   0015BA  EFE1  F00A         	goto	i2u665_41
  3511   0015BE  EFE3  F00A         	goto	i2u665_40
  3512   0015C2                     i2u665_41:
  3513   0015C2  EFF0  F00A         	goto	i2l1163
  3514   0015C6                     i2u665_40:
  3515   0015C6  5077               	movf	_RB4_Flag^0,w,c	;volatile
  3516   0015C8  A4D8               	btfss	status,2,c
  3517   0015CA  EFE9  F00A         	goto	i2u666_41
  3518   0015CE  EFEB  F00A         	goto	i2u666_40
  3519   0015D2                     i2u666_41:
  3520   0015D2  EFF0  F00A         	goto	i2l1163
  3521   0015D6                     i2u666_40:
  3522   0015D6                     
  3523                           ;MCAL_Layer/Interrupt/mcal_interrupt_manager.c: 77:        (PORTBbits.RB4 == GPIO_LOW) &
      +                          & (RB4_Flag == 0)){;MCAL_Layer/Interrupt/mcal_interrupt_manager.c: 78:         RB4_Flag 
      +                          = 1;
  3524   0015D6  0E01               	movlw	1
  3525   0015D8  6E77               	movwf	_RB4_Flag^0,c	;volatile
  3526   0015DA                     
  3527                           ;MCAL_Layer/Interrupt/mcal_interrupt_manager.c: 79:         RB4_ISR(1);
  3528   0015DA  0E01               	movlw	1
  3529   0015DC  ECCC  F011         	call	_RB4_ISR
  3530   0015E0                     i2l1163:
  3531                           
  3532                           ;MCAL_Layer/Interrupt/mcal_interrupt_manager.c: 82:     if((1 == INTCONbits.RBIE) && (1 
      +                          == INTCONbits.RBIF) &&
  3533   0015E0  A6F2               	btfss	242,3,c	;volatile
  3534   0015E2  EFF5  F00A         	goto	i2u667_41
  3535   0015E6  EFF7  F00A         	goto	i2u667_40
  3536   0015EA                     i2u667_41:
  3537   0015EA  EF12  F00B         	goto	i2l1165
  3538   0015EE                     i2u667_40:
  3539   0015EE  A0F2               	btfss	242,0,c	;volatile
  3540   0015F0  EFFC  F00A         	goto	i2u668_41
  3541   0015F4  EFFE  F00A         	goto	i2u668_40
  3542   0015F8                     i2u668_41:
  3543   0015F8  EF12  F00B         	goto	i2l1165
  3544   0015FC                     i2u668_40:
  3545   0015FC  AA81               	btfss	129,5,c	;volatile
  3546   0015FE  EF03  F00B         	goto	i2u669_41
  3547   001602  EF05  F00B         	goto	i2u669_40
  3548   001606                     i2u669_41:
  3549   001606  EF12  F00B         	goto	i2l1165
  3550   00160A                     i2u669_40:
  3551   00160A  0476               	decf	_RB5_Flag^0,w,c	;volatile
  3552   00160C  A4D8               	btfss	status,2,c
  3553   00160E  EF0B  F00B         	goto	i2u670_41
  3554   001612  EF0D  F00B         	goto	i2u670_40
  3555   001616                     i2u670_41:
  3556   001616  EF12  F00B         	goto	i2l1165
  3557   00161A                     i2u670_40:
  3558   00161A                     
  3559                           ;MCAL_Layer/Interrupt/mcal_interrupt_manager.c: 83:        (PORTBbits.RB5 == GPIO_HIGH) 
      +                          && (RB5_Flag == 1)){;MCAL_Layer/Interrupt/mcal_interrupt_manager.c: 84:         RB5_Flag
      +                           = 0;
  3560   00161A  0E00               	movlw	0
  3561   00161C  6E76               	movwf	_RB5_Flag^0,c	;volatile
  3562   00161E                     
  3563                           ;MCAL_Layer/Interrupt/mcal_interrupt_manager.c: 85:         RB5_ISR(0);
  3564   00161E  0E00               	movlw	0
  3565   001620  ECBF  F011         	call	_RB5_ISR
  3566   001624                     i2l1165:
  3567                           
  3568                           ;MCAL_Layer/Interrupt/mcal_interrupt_manager.c: 88:     if((1 == INTCONbits.RBIE) && (1 
      +                          == INTCONbits.RBIF) &&
  3569   001624  A6F2               	btfss	242,3,c	;volatile
  3570   001626  EF17  F00B         	goto	i2u671_41
  3571   00162A  EF19  F00B         	goto	i2u671_40
  3572   00162E                     i2u671_41:
  3573   00162E  EF34  F00B         	goto	i2l1167
  3574   001632                     i2u671_40:
  3575   001632  A0F2               	btfss	242,0,c	;volatile
  3576   001634  EF1E  F00B         	goto	i2u672_41
  3577   001638  EF20  F00B         	goto	i2u672_40
  3578   00163C                     i2u672_41:
  3579   00163C  EF34  F00B         	goto	i2l1167
  3580   001640                     i2u672_40:
  3581   001640  BA81               	btfsc	129,5,c	;volatile
  3582   001642  EF25  F00B         	goto	i2u673_41
  3583   001646  EF27  F00B         	goto	i2u673_40
  3584   00164A                     i2u673_41:
  3585   00164A  EF34  F00B         	goto	i2l1167
  3586   00164E                     i2u673_40:
  3587   00164E  5076               	movf	_RB5_Flag^0,w,c	;volatile
  3588   001650  A4D8               	btfss	status,2,c
  3589   001652  EF2D  F00B         	goto	i2u674_41
  3590   001656  EF2F  F00B         	goto	i2u674_40
  3591   00165A                     i2u674_41:
  3592   00165A  EF34  F00B         	goto	i2l1167
  3593   00165E                     i2u674_40:
  3594   00165E                     
  3595                           ;MCAL_Layer/Interrupt/mcal_interrupt_manager.c: 89:        (PORTBbits.RB5 == GPIO_LOW) &
      +                          & (RB5_Flag == 0)){;MCAL_Layer/Interrupt/mcal_interrupt_manager.c: 90:         RB5_Flag 
      +                          = 1;
  3596   00165E  0E01               	movlw	1
  3597   001660  6E76               	movwf	_RB5_Flag^0,c	;volatile
  3598   001662                     
  3599                           ;MCAL_Layer/Interrupt/mcal_interrupt_manager.c: 91:         RB5_ISR(1);
  3600   001662  0E01               	movlw	1
  3601   001664  ECBF  F011         	call	_RB5_ISR
  3602   001668                     i2l1167:
  3603                           
  3604                           ;MCAL_Layer/Interrupt/mcal_interrupt_manager.c: 94:     if((1 == INTCONbits.RBIE) && (1 
      +                          == INTCONbits.RBIF) &&
  3605   001668  A6F2               	btfss	242,3,c	;volatile
  3606   00166A  EF39  F00B         	goto	i2u675_41
  3607   00166E  EF3B  F00B         	goto	i2u675_40
  3608   001672                     i2u675_41:
  3609   001672  EF56  F00B         	goto	i2l1169
  3610   001676                     i2u675_40:
  3611   001676  A0F2               	btfss	242,0,c	;volatile
  3612   001678  EF40  F00B         	goto	i2u676_41
  3613   00167C  EF42  F00B         	goto	i2u676_40
  3614   001680                     i2u676_41:
  3615   001680  EF56  F00B         	goto	i2l1169
  3616   001684                     i2u676_40:
  3617   001684  AC81               	btfss	129,6,c	;volatile
  3618   001686  EF47  F00B         	goto	i2u677_41
  3619   00168A  EF49  F00B         	goto	i2u677_40
  3620   00168E                     i2u677_41:
  3621   00168E  EF56  F00B         	goto	i2l1169
  3622   001692                     i2u677_40:
  3623   001692  0475               	decf	_RB6_Flag^0,w,c	;volatile
  3624   001694  A4D8               	btfss	status,2,c
  3625   001696  EF4F  F00B         	goto	i2u678_41
  3626   00169A  EF51  F00B         	goto	i2u678_40
  3627   00169E                     i2u678_41:
  3628   00169E  EF56  F00B         	goto	i2l1169
  3629   0016A2                     i2u678_40:
  3630   0016A2                     
  3631                           ;MCAL_Layer/Interrupt/mcal_interrupt_manager.c: 95:        (PORTBbits.RB6 == GPIO_HIGH) 
      +                          && (RB6_Flag == 1)){;MCAL_Layer/Interrupt/mcal_interrupt_manager.c: 96:         RB6_Flag
      +                           = 0;
  3632   0016A2  0E00               	movlw	0
  3633   0016A4  6E75               	movwf	_RB6_Flag^0,c	;volatile
  3634   0016A6                     
  3635                           ;MCAL_Layer/Interrupt/mcal_interrupt_manager.c: 97:         RB6_ISR(0);
  3636   0016A6  0E00               	movlw	0
  3637   0016A8  ECB2  F011         	call	_RB6_ISR
  3638   0016AC                     i2l1169:
  3639                           
  3640                           ;MCAL_Layer/Interrupt/mcal_interrupt_manager.c: 100:     if((1 == INTCONbits.RBIE) && (1
      +                           == INTCONbits.RBIF) &&
  3641   0016AC  A6F2               	btfss	242,3,c	;volatile
  3642   0016AE  EF5B  F00B         	goto	i2u679_41
  3643   0016B2  EF5D  F00B         	goto	i2u679_40
  3644   0016B6                     i2u679_41:
  3645   0016B6  EF78  F00B         	goto	i2l1171
  3646   0016BA                     i2u679_40:
  3647   0016BA  A0F2               	btfss	242,0,c	;volatile
  3648   0016BC  EF62  F00B         	goto	i2u680_41
  3649   0016C0  EF64  F00B         	goto	i2u680_40
  3650   0016C4                     i2u680_41:
  3651   0016C4  EF78  F00B         	goto	i2l1171
  3652   0016C8                     i2u680_40:
  3653   0016C8  BC81               	btfsc	129,6,c	;volatile
  3654   0016CA  EF69  F00B         	goto	i2u681_41
  3655   0016CE  EF6B  F00B         	goto	i2u681_40
  3656   0016D2                     i2u681_41:
  3657   0016D2  EF78  F00B         	goto	i2l1171
  3658   0016D6                     i2u681_40:
  3659   0016D6  5075               	movf	_RB6_Flag^0,w,c	;volatile
  3660   0016D8  A4D8               	btfss	status,2,c
  3661   0016DA  EF71  F00B         	goto	i2u682_41
  3662   0016DE  EF73  F00B         	goto	i2u682_40
  3663   0016E2                     i2u682_41:
  3664   0016E2  EF78  F00B         	goto	i2l1171
  3665   0016E6                     i2u682_40:
  3666   0016E6                     
  3667                           ;MCAL_Layer/Interrupt/mcal_interrupt_manager.c: 101:        (PORTBbits.RB6 == GPIO_LOW) 
      +                          && (RB6_Flag == 0)){;MCAL_Layer/Interrupt/mcal_interrupt_manager.c: 102:         RB6_Fla
      +                          g = 1;
  3668   0016E6  0E01               	movlw	1
  3669   0016E8  6E75               	movwf	_RB6_Flag^0,c	;volatile
  3670   0016EA                     
  3671                           ;MCAL_Layer/Interrupt/mcal_interrupt_manager.c: 103:         RB6_ISR(1);
  3672   0016EA  0E01               	movlw	1
  3673   0016EC  ECB2  F011         	call	_RB6_ISR
  3674   0016F0                     i2l1171:
  3675                           
  3676                           ;MCAL_Layer/Interrupt/mcal_interrupt_manager.c: 106:     if((1 == INTCONbits.RBIE) && (1
      +                           == INTCONbits.RBIF) &&
  3677   0016F0  A6F2               	btfss	242,3,c	;volatile
  3678   0016F2  EF7D  F00B         	goto	i2u683_41
  3679   0016F6  EF7F  F00B         	goto	i2u683_40
  3680   0016FA                     i2u683_41:
  3681   0016FA  EF9A  F00B         	goto	i2l1173
  3682   0016FE                     i2u683_40:
  3683   0016FE  A0F2               	btfss	242,0,c	;volatile
  3684   001700  EF84  F00B         	goto	i2u684_41
  3685   001704  EF86  F00B         	goto	i2u684_40
  3686   001708                     i2u684_41:
  3687   001708  EF9A  F00B         	goto	i2l1173
  3688   00170C                     i2u684_40:
  3689   00170C  AE81               	btfss	129,7,c	;volatile
  3690   00170E  EF8B  F00B         	goto	i2u685_41
  3691   001712  EF8D  F00B         	goto	i2u685_40
  3692   001716                     i2u685_41:
  3693   001716  EF9A  F00B         	goto	i2l1173
  3694   00171A                     i2u685_40:
  3695   00171A  0474               	decf	_RB7_Flag^0,w,c	;volatile
  3696   00171C  A4D8               	btfss	status,2,c
  3697   00171E  EF93  F00B         	goto	i2u686_41
  3698   001722  EF95  F00B         	goto	i2u686_40
  3699   001726                     i2u686_41:
  3700   001726  EF9A  F00B         	goto	i2l1173
  3701   00172A                     i2u686_40:
  3702   00172A                     
  3703                           ;MCAL_Layer/Interrupt/mcal_interrupt_manager.c: 107:        (PORTBbits.RB7 == GPIO_HIGH)
      +                           && (RB7_Flag == 1)){;MCAL_Layer/Interrupt/mcal_interrupt_manager.c: 108:         RB7_Fl
      +                          ag = 0;
  3704   00172A  0E00               	movlw	0
  3705   00172C  6E74               	movwf	_RB7_Flag^0,c	;volatile
  3706   00172E                     
  3707                           ;MCAL_Layer/Interrupt/mcal_interrupt_manager.c: 109:         RB7_ISR(0);
  3708   00172E  0E00               	movlw	0
  3709   001730  ECA5  F011         	call	_RB7_ISR
  3710   001734                     i2l1173:
  3711                           
  3712                           ;MCAL_Layer/Interrupt/mcal_interrupt_manager.c: 112:     if((1 == INTCONbits.RBIE) && (1
      +                           == INTCONbits.RBIF) &&
  3713   001734  A6F2               	btfss	242,3,c	;volatile
  3714   001736  EF9F  F00B         	goto	i2u687_41
  3715   00173A  EFA1  F00B         	goto	i2u687_40
  3716   00173E                     i2u687_41:
  3717   00173E  EFBC  F00B         	goto	i2l1175
  3718   001742                     i2u687_40:
  3719   001742  A0F2               	btfss	242,0,c	;volatile
  3720   001744  EFA6  F00B         	goto	i2u688_41
  3721   001748  EFA8  F00B         	goto	i2u688_40
  3722   00174C                     i2u688_41:
  3723   00174C  EFBC  F00B         	goto	i2l1175
  3724   001750                     i2u688_40:
  3725   001750  BE81               	btfsc	129,7,c	;volatile
  3726   001752  EFAD  F00B         	goto	i2u689_41
  3727   001756  EFAF  F00B         	goto	i2u689_40
  3728   00175A                     i2u689_41:
  3729   00175A  EFBC  F00B         	goto	i2l1175
  3730   00175E                     i2u689_40:
  3731   00175E  5074               	movf	_RB7_Flag^0,w,c	;volatile
  3732   001760  A4D8               	btfss	status,2,c
  3733   001762  EFB5  F00B         	goto	i2u690_41
  3734   001766  EFB7  F00B         	goto	i2u690_40
  3735   00176A                     i2u690_41:
  3736   00176A  EFBC  F00B         	goto	i2l1175
  3737   00176E                     i2u690_40:
  3738   00176E                     
  3739                           ;MCAL_Layer/Interrupt/mcal_interrupt_manager.c: 113:        (PORTBbits.RB7 == GPIO_LOW) 
      +                          && (RB7_Flag == 0)){;MCAL_Layer/Interrupt/mcal_interrupt_manager.c: 114:         RB7_Fla
      +                          g = 1;
  3740   00176E  0E01               	movlw	1
  3741   001770  6E74               	movwf	_RB7_Flag^0,c	;volatile
  3742   001772                     
  3743                           ;MCAL_Layer/Interrupt/mcal_interrupt_manager.c: 115:         RB7_ISR(1);
  3744   001772  0E01               	movlw	1
  3745   001774  ECA5  F011         	call	_RB7_ISR
  3746   001778                     i2l1175:
  3747                           
  3748                           ;MCAL_Layer/Interrupt/mcal_interrupt_manager.c: 122:     if((1 == PIE1bits.ADIE) && (1 =
      +                          = PIR1bits.ADIF)){
  3749   001778  AC9D               	btfss	157,6,c	;volatile
  3750   00177A  EFC1  F00B         	goto	i2u691_41
  3751   00177E  EFC3  F00B         	goto	i2u691_40
  3752   001782                     i2u691_41:
  3753   001782  EFC4  F00B         	goto	i2l1177
  3754   001786                     i2u691_40:
  3755   001786  509E               	movf	158,w,c	;volatile
  3756   001788                     i2l1177:
  3757                           
  3758                           ;MCAL_Layer/Interrupt/mcal_interrupt_manager.c: 127:     if((1 == INTCONbits.TMR0IE) && 
      +                          (1 == INTCONbits.TMR0IF)){
  3759   001788  AAF2               	btfss	242,5,c	;volatile
  3760   00178A  EFC9  F00B         	goto	i2u692_41
  3761   00178E  EFCB  F00B         	goto	i2u692_40
  3762   001792                     i2u692_41:
  3763   001792  EFD4  F00B         	goto	i2l1179
  3764   001796                     i2u692_40:
  3765   001796  A4F2               	btfss	242,2,c	;volatile
  3766   001798  EFD0  F00B         	goto	i2u693_41
  3767   00179C  EFD2  F00B         	goto	i2u693_40
  3768   0017A0                     i2u693_41:
  3769   0017A0  EFD4  F00B         	goto	i2l1179
  3770   0017A4                     i2u693_40:
  3771   0017A4                     
  3772                           ;MCAL_Layer/Interrupt/mcal_interrupt_manager.c: 128:         TMR0_ISR();
  3773   0017A4  ECEE  F011         	call	_TMR0_ISR	;wreg free
  3774   0017A8                     i2l1179:
  3775                           
  3776                           ;MCAL_Layer/Interrupt/mcal_interrupt_manager.c: 131:     if((1 == PIE1bits.TMR1IE) && (1
      +                           == PIR1bits.TMR1IF)){
  3777   0017A8  A09D               	btfss	157,0,c	;volatile
  3778   0017AA  EFD9  F00B         	goto	i2u694_41
  3779   0017AE  EFDB  F00B         	goto	i2u694_40
  3780   0017B2                     i2u694_41:
  3781   0017B2  EFE4  F00B         	goto	i2l1181
  3782   0017B6                     i2u694_40:
  3783   0017B6  A09E               	btfss	158,0,c	;volatile
  3784   0017B8  EFE0  F00B         	goto	i2u695_41
  3785   0017BC  EFE2  F00B         	goto	i2u695_40
  3786   0017C0                     i2u695_41:
  3787   0017C0  EFE4  F00B         	goto	i2l1181
  3788   0017C4                     i2u695_40:
  3789   0017C4                     
  3790                           ;MCAL_Layer/Interrupt/mcal_interrupt_manager.c: 132:         TMR1_ISR();
  3791   0017C4  ECE8  F011         	call	_TMR1_ISR	;wreg free
  3792   0017C8                     i2l1181:
  3793                           
  3794                           ;MCAL_Layer/Interrupt/mcal_interrupt_manager.c: 135:     if((1 == PIE1bits.TMR2IE) && (1
      +                           == PIR1bits.TMR2IF)){
  3795   0017C8  A29D               	btfss	157,1,c	;volatile
  3796   0017CA  EFE9  F00B         	goto	i2u696_41
  3797   0017CE  EFEB  F00B         	goto	i2u696_40
  3798   0017D2                     i2u696_41:
  3799   0017D2  EFF4  F00B         	goto	i2l1183
  3800   0017D6                     i2u696_40:
  3801   0017D6  A29E               	btfss	158,1,c	;volatile
  3802   0017D8  EFF0  F00B         	goto	i2u697_41
  3803   0017DC  EFF2  F00B         	goto	i2u697_40
  3804   0017E0                     i2u697_41:
  3805   0017E0  EFF4  F00B         	goto	i2l1183
  3806   0017E4                     i2u697_40:
  3807   0017E4                     
  3808                           ;MCAL_Layer/Interrupt/mcal_interrupt_manager.c: 136:         TMR2_ISR();
  3809   0017E4  ECF4  F011         	call	_TMR2_ISR	;wreg free
  3810   0017E8                     i2l1183:
  3811                           
  3812                           ;MCAL_Layer/Interrupt/mcal_interrupt_manager.c: 139:     if((1 == PIE2bits.TMR3IE) && (1
      +                           == PIR2bits.TMR3IF)){
  3813   0017E8  A2A0               	btfss	160,1,c	;volatile
  3814   0017EA  EFF9  F00B         	goto	i2u698_41
  3815   0017EE  EFFB  F00B         	goto	i2u698_40
  3816   0017F2                     i2u698_41:
  3817   0017F2  EF04  F00C         	goto	i2l1185
  3818   0017F6                     i2u698_40:
  3819   0017F6  A2A1               	btfss	161,1,c	;volatile
  3820   0017F8  EF00  F00C         	goto	i2u699_41
  3821   0017FC  EF02  F00C         	goto	i2u699_40
  3822   001800                     i2u699_41:
  3823   001800  EF04  F00C         	goto	i2l1185
  3824   001804                     i2u699_40:
  3825   001804                     
  3826                           ;MCAL_Layer/Interrupt/mcal_interrupt_manager.c: 140:         TMR3_ISR();
  3827   001804  ECE2  F011         	call	_TMR3_ISR	;wreg free
  3828   001808                     i2l1185:
  3829                           
  3830                           ;MCAL_Layer/Interrupt/mcal_interrupt_manager.c: 144:     if((1 == PIE1bits.TXIE) && (1 =
      +                          = PIR1bits.TXIF)){
  3831   001808  A89D               	btfss	157,4,c	;volatile
  3832   00180A  EF09  F00C         	goto	i2u700_41
  3833   00180E  EF0B  F00C         	goto	i2u700_40
  3834   001812                     i2u700_41:
  3835   001812  EF0C  F00C         	goto	i2l1187
  3836   001816                     i2u700_40:
  3837   001816  509E               	movf	158,w,c	;volatile
  3838   001818                     i2l1187:
  3839                           
  3840                           ;MCAL_Layer/Interrupt/mcal_interrupt_manager.c: 148:     if((1 == PIE1bits.RCIE) && (1 =
      +                          = PIR1bits.RCIF)){
  3841   001818  AA9D               	btfss	157,5,c	;volatile
  3842   00181A  EF11  F00C         	goto	i2u701_41
  3843   00181E  EF13  F00C         	goto	i2u701_40
  3844   001822                     i2u701_41:
  3845   001822  EF14  F00C         	goto	i2l1189
  3846   001826                     i2u701_40:
  3847   001826  509E               	movf	158,w,c	;volatile
  3848   001828                     i2l1189:
  3849                           
  3850                           ;MCAL_Layer/Interrupt/mcal_interrupt_manager.c: 154:     if((1 == PIE1bits.SSPIE) && (1 
      +                          == PIR1bits.SSPIF)){
  3851   001828  A69D               	btfss	157,3,c	;volatile
  3852   00182A  EF19  F00C         	goto	i2u702_41
  3853   00182E  EF1B  F00C         	goto	i2u702_40
  3854   001832                     i2u702_41:
  3855   001832  EF1C  F00C         	goto	i2l1191
  3856   001836                     i2u702_40:
  3857   001836  509E               	movf	158,w,c	;volatile
  3858   001838                     i2l1191:
  3859                           
  3860                           ;MCAL_Layer/Interrupt/mcal_interrupt_manager.c: 158:     if((1 == PIE2bits.BCLIE) && (1 
      +                          == PIR2bits.BCLIF)){
  3861   001838  A6A0               	btfss	160,3,c	;volatile
  3862   00183A  EF21  F00C         	goto	i2u703_41
  3863   00183E  EF23  F00C         	goto	i2u703_40
  3864   001842                     i2u703_41:
  3865   001842  EF24  F00C         	goto	i2l1193
  3866   001846                     i2u703_40:
  3867   001846  50A1               	movf	161,w,c	;volatile
  3868   001848                     i2l1193:
  3869                           
  3870                           ;MCAL_Layer/Interrupt/mcal_interrupt_manager.c: 162:     if((1 == PIE1bits.SSPIE) && (1 
      +                          == PIR1bits.SSPIF)){
  3871   001848  A69D               	btfss	157,3,c	;volatile
  3872   00184A  EF29  F00C         	goto	i2u704_41
  3873   00184E  EF2B  F00C         	goto	i2u704_40
  3874   001852                     i2u704_41:
  3875   001852  EF34  F00C         	goto	i2l1195
  3876   001856                     i2u704_40:
  3877   001856  A69E               	btfss	158,3,c	;volatile
  3878   001858  EF30  F00C         	goto	i2u705_41
  3879   00185C  EF32  F00C         	goto	i2u705_40
  3880   001860                     i2u705_41:
  3881   001860  EF34  F00C         	goto	i2l1195
  3882   001864                     i2u705_40:
  3883   001864                     
  3884                           ;MCAL_Layer/Interrupt/mcal_interrupt_manager.c: 163:         MSSP_SPI_ISR();
  3885   001864  ECFE  F011         	call	_MSSP_SPI_ISR	;wreg free
  3886   001868                     i2l1195:
  3887                           
  3888                           ;MCAL_Layer/Interrupt/mcal_interrupt_manager.c: 171:     if((1 == PIE1bits.CCP1IE) && (1
      +                           == PIR1bits.CCP1IF)){
  3889   001868  A49D               	btfss	157,2,c	;volatile
  3890   00186A  EF39  F00C         	goto	i2u706_41
  3891   00186E  EF3B  F00C         	goto	i2u706_40
  3892   001872                     i2u706_41:
  3893   001872  EF44  F00C         	goto	i2l1197
  3894   001876                     i2u706_40:
  3895   001876  A49E               	btfss	158,2,c	;volatile
  3896   001878  EF40  F00C         	goto	i2u707_41
  3897   00187C  EF42  F00C         	goto	i2u707_40
  3898   001880                     i2u707_41:
  3899   001880  EF44  F00C         	goto	i2l1197
  3900   001884                     i2u707_40:
  3901   001884                     
  3902                           ;MCAL_Layer/Interrupt/mcal_interrupt_manager.c: 172:         CCP1_ISR();
  3903   001884  EC08  F012         	call	_CCP1_ISR	;wreg free
  3904   001888                     i2l1197:
  3905                           
  3906                           ;MCAL_Layer/Interrupt/mcal_interrupt_manager.c: 175:     if((1 == PIE2bits.CCP2IE) && (1
      +                           == PIR2bits.CCP2IF)){
  3907   001888  A0A0               	btfss	160,0,c	;volatile
  3908   00188A  EF49  F00C         	goto	i2u708_41
  3909   00188E  EF4B  F00C         	goto	i2u708_40
  3910   001892                     i2u708_41:
  3911   001892  EF54  F00C         	goto	i2l1200
  3912   001896                     i2u708_40:
  3913   001896  A0A1               	btfss	161,0,c	;volatile
  3914   001898  EF50  F00C         	goto	i2u709_41
  3915   00189C  EF52  F00C         	goto	i2u709_40
  3916   0018A0                     i2u709_41:
  3917   0018A0  EF54  F00C         	goto	i2l1200
  3918   0018A4                     i2u709_40:
  3919   0018A4                     
  3920                           ;MCAL_Layer/Interrupt/mcal_interrupt_manager.c: 176:         CCP2_ISR();
  3921   0018A4  EC06  F012         	call	_CCP2_ISR	;wreg free
  3922   0018A8                     i2l1200:
  3923   0018A8  927E               	bcf	int$flags,1,c	;clear compiler interrupt flag (level 2)
  3924   0018AA  0011               	retfie		f
  3925   0018AC                     __end_of_InterruptManager:
  3926                           	callstack 0
  3927                           
  3928 ;; *************** function _TMR3_ISR *****************
  3929 ;; Defined at:
  3930 ;;		line 102 in file "MCAL_Layer/Timer3/hal_timer3.c"
  3931 ;; Parameters:    Size  Location     Type
  3932 ;;		None
  3933 ;; Auto vars:     Size  Location     Type
  3934 ;;		None
  3935 ;; Return value:  Size  Location     Type
  3936 ;;                  1    wreg      void 
  3937 ;; Registers used:
  3938 ;;		wreg, status,2
  3939 ;; Tracked objects:
  3940 ;;		On entry : 0/0
  3941 ;;		On exit  : 0/0
  3942 ;;		Unchanged: 0/0
  3943 ;; Data sizes:     COMRAM   BANK0   BANK1   BANK2   BANK3   BANK4   BANK5   BANK6   BANK7   BANK8   BANK9  BANK10  BANK1
      +1  BANK12  BANK13  BANK14  BANK15
  3944 ;;      Params:         0       0       0       0       0       0       0       0       0       0       0       0       
      +0       0       0       0       0
  3945 ;;      Locals:         0       0       0       0       0       0       0       0       0       0       0       0       
      +0       0       0       0       0
  3946 ;;      Temps:          0       0       0       0       0       0       0       0       0       0       0       0       
      +0       0       0       0       0
  3947 ;;      Totals:         0       0       0       0       0       0       0       0       0       0       0       0       
      +0       0       0       0       0
  3948 ;;Total ram usage:        0 bytes
  3949 ;; Hardware stack levels used: 1
  3950 ;; This function calls:
  3951 ;;		Nothing
  3952 ;; This function is called by:
  3953 ;;		_InterruptManager
  3954 ;; This function uses a non-reentrant model
  3955 ;;
  3956                           
  3957                           	psect	text15
  3958   0023C4                     __ptext15:
  3959                           	callstack 0
  3960   0023C4                     _TMR3_ISR:
  3961                           	callstack 26
  3962   0023C4                     
  3963                           ;MCAL_Layer/Timer3/hal_timer3.c: 103:     (PIR2bits.TMR3IF = 0);
  3964   0023C4  92A1               	bcf	161,1,c	;volatile
  3965   0023C6                     
  3966                           ;MCAL_Layer/Timer3/hal_timer3.c: 104:     TMR3H = (timer3_preload) >> 8;
  3967   0023C6  504C               	movf	(_timer3_preload+1)^0,w,c
  3968   0023C8  6EB3               	movwf	179,c	;volatile
  3969   0023CA                     
  3970                           ;MCAL_Layer/Timer3/hal_timer3.c: 105:     TMR3L = (uint8)(timer3_preload);
  3971   0023CA  C04B  FFB2         	movff	_timer3_preload,4018	;volatile
  3972   0023CE  0012               	return		;funcret
  3973   0023D0                     __end_of_TMR3_ISR:
  3974                           	callstack 0
  3975                           
  3976 ;; *************** function _TMR2_ISR *****************
  3977 ;; Defined at:
  3978 ;;		line 96 in file "MCAL_Layer/Timer2/hal_timer2.c"
  3979 ;; Parameters:    Size  Location     Type
  3980 ;;		None
  3981 ;; Auto vars:     Size  Location     Type
  3982 ;;		None
  3983 ;; Return value:  Size  Location     Type
  3984 ;;                  1    wreg      void 
  3985 ;; Registers used:
  3986 ;;		None
  3987 ;; Tracked objects:
  3988 ;;		On entry : 0/0
  3989 ;;		On exit  : 0/0
  3990 ;;		Unchanged: 0/0
  3991 ;; Data sizes:     COMRAM   BANK0   BANK1   BANK2   BANK3   BANK4   BANK5   BANK6   BANK7   BANK8   BANK9  BANK10  BANK1
      +1  BANK12  BANK13  BANK14  BANK15
  3992 ;;      Params:         0       0       0       0       0       0       0       0       0       0       0       0       
      +0       0       0       0       0
  3993 ;;      Locals:         0       0       0       0       0       0       0       0       0       0       0       0       
      +0       0       0       0       0
  3994 ;;      Temps:          0       0       0       0       0       0       0       0       0       0       0       0       
      +0       0       0       0       0
  3995 ;;      Totals:         0       0       0       0       0       0       0       0       0       0       0       0       
      +0       0       0       0       0
  3996 ;;Total ram usage:        0 bytes
  3997 ;; Hardware stack levels used: 1
  3998 ;; This function calls:
  3999 ;;		Nothing
  4000 ;; This function is called by:
  4001 ;;		_InterruptManager
  4002 ;; This function uses a non-reentrant model
  4003 ;;
  4004                           
  4005                           	psect	text16
  4006   0023E8                     __ptext16:
  4007                           	callstack 0
  4008   0023E8                     _TMR2_ISR:
  4009                           	callstack 26
  4010   0023E8                     
  4011                           ;MCAL_Layer/Timer2/hal_timer2.c: 97:     (PIR1bits.TMR2IF = 0);
  4012   0023E8  929E               	bcf	158,1,c	;volatile
  4013                           
  4014                           ;MCAL_Layer/Timer2/hal_timer2.c: 98:     TMR2 = timer2_preload;
  4015   0023EA  C064  FFCC         	movff	_timer2_preload,4044	;volatile
  4016   0023EE  0012               	return		;funcret
  4017   0023F0                     __end_of_TMR2_ISR:
  4018                           	callstack 0
  4019                           
  4020 ;; *************** function _TMR1_ISR *****************
  4021 ;; Defined at:
  4022 ;;		line 102 in file "MCAL_Layer/Timer1/hal_timer1.c"
  4023 ;; Parameters:    Size  Location     Type
  4024 ;;		None
  4025 ;; Auto vars:     Size  Location     Type
  4026 ;;		None
  4027 ;; Return value:  Size  Location     Type
  4028 ;;                  1    wreg      void 
  4029 ;; Registers used:
  4030 ;;		wreg, status,2
  4031 ;; Tracked objects:
  4032 ;;		On entry : 0/0
  4033 ;;		On exit  : 0/0
  4034 ;;		Unchanged: 0/0
  4035 ;; Data sizes:     COMRAM   BANK0   BANK1   BANK2   BANK3   BANK4   BANK5   BANK6   BANK7   BANK8   BANK9  BANK10  BANK1
      +1  BANK12  BANK13  BANK14  BANK15
  4036 ;;      Params:         0       0       0       0       0       0       0       0       0       0       0       0       
      +0       0       0       0       0
  4037 ;;      Locals:         0       0       0       0       0       0       0       0       0       0       0       0       
      +0       0       0       0       0
  4038 ;;      Temps:          0       0       0       0       0       0       0       0       0       0       0       0       
      +0       0       0       0       0
  4039 ;;      Totals:         0       0       0       0       0       0       0       0       0       0       0       0       
      +0       0       0       0       0
  4040 ;;Total ram usage:        0 bytes
  4041 ;; Hardware stack levels used: 1
  4042 ;; This function calls:
  4043 ;;		Nothing
  4044 ;; This function is called by:
  4045 ;;		_InterruptManager
  4046 ;; This function uses a non-reentrant model
  4047 ;;
  4048                           
  4049                           	psect	text17
  4050   0023D0                     __ptext17:
  4051                           	callstack 0
  4052   0023D0                     _TMR1_ISR:
  4053                           	callstack 26
  4054   0023D0                     
  4055                           ;MCAL_Layer/Timer1/hal_timer1.c: 103:     (PIR1bits.TMR1IF = 0);
  4056   0023D0  909E               	bcf	158,0,c	;volatile
  4057   0023D2                     
  4058                           ;MCAL_Layer/Timer1/hal_timer1.c: 104:     TMR1H = (timer1_preload) >> 8;
  4059   0023D2  504E               	movf	(_timer1_preload+1)^0,w,c	;volatile
  4060   0023D4  6ECF               	movwf	207,c	;volatile
  4061   0023D6                     
  4062                           ;MCAL_Layer/Timer1/hal_timer1.c: 105:     TMR1L = (uint8)(timer1_preload);
  4063   0023D6  C04D  FFCE         	movff	_timer1_preload,4046	;volatile
  4064   0023DA  0012               	return		;funcret
  4065   0023DC                     __end_of_TMR1_ISR:
  4066                           	callstack 0
  4067                           
  4068 ;; *************** function _TMR0_ISR *****************
  4069 ;; Defined at:
  4070 ;;		line 107 in file "MCAL_Layer/Timer0/hal_timer0.c"
  4071 ;; Parameters:    Size  Location     Type
  4072 ;;		None
  4073 ;; Auto vars:     Size  Location     Type
  4074 ;;		None
  4075 ;; Return value:  Size  Location     Type
  4076 ;;                  1    wreg      void 
  4077 ;; Registers used:
  4078 ;;		wreg, status,2
  4079 ;; Tracked objects:
  4080 ;;		On entry : 0/0
  4081 ;;		On exit  : 0/0
  4082 ;;		Unchanged: 0/0
  4083 ;; Data sizes:     COMRAM   BANK0   BANK1   BANK2   BANK3   BANK4   BANK5   BANK6   BANK7   BANK8   BANK9  BANK10  BANK1
      +1  BANK12  BANK13  BANK14  BANK15
  4084 ;;      Params:         0       0       0       0       0       0       0       0       0       0       0       0       
      +0       0       0       0       0
  4085 ;;      Locals:         0       0       0       0       0       0       0       0       0       0       0       0       
      +0       0       0       0       0
  4086 ;;      Temps:          0       0       0       0       0       0       0       0       0       0       0       0       
      +0       0       0       0       0
  4087 ;;      Totals:         0       0       0       0       0       0       0       0       0       0       0       0       
      +0       0       0       0       0
  4088 ;;Total ram usage:        0 bytes
  4089 ;; Hardware stack levels used: 1
  4090 ;; This function calls:
  4091 ;;		Nothing
  4092 ;; This function is called by:
  4093 ;;		_InterruptManager
  4094 ;; This function uses a non-reentrant model
  4095 ;;
  4096                           
  4097                           	psect	text18
  4098   0023DC                     __ptext18:
  4099                           	callstack 0
  4100   0023DC                     _TMR0_ISR:
  4101                           	callstack 26
  4102   0023DC                     
  4103                           ;MCAL_Layer/Timer0/hal_timer0.c: 108:     (INTCONbits.TMR0IF = 0);
  4104   0023DC  94F2               	bcf	242,2,c	;volatile
  4105   0023DE                     
  4106                           ;MCAL_Layer/Timer0/hal_timer0.c: 109:     TMR0H = (timer0_preload) >> 8;
  4107   0023DE  5050               	movf	(_timer0_preload+1)^0,w,c
  4108   0023E0  6ED7               	movwf	215,c	;volatile
  4109   0023E2                     
  4110                           ;MCAL_Layer/Timer0/hal_timer0.c: 110:     TMR0L = (uint8)(timer0_preload);
  4111   0023E2  C04F  FFD6         	movff	_timer0_preload,4054	;volatile
  4112   0023E6  0012               	return		;funcret
  4113   0023E8                     __end_of_TMR0_ISR:
  4114                           	callstack 0
  4115                           
  4116 ;; *************** function _RB7_ISR *****************
  4117 ;; Defined at:
  4118 ;;		line 165 in file "MCAL_Layer/Interrupt/mcal_external_interrupt.c"
  4119 ;; Parameters:    Size  Location     Type
  4120 ;;  RB7_Source      1    wreg     unsigned char 
  4121 ;; Auto vars:     Size  Location     Type
  4122 ;;  RB7_Source      1    0[COMRAM] unsigned char 
  4123 ;; Return value:  Size  Location     Type
  4124 ;;                  1    wreg      void 
  4125 ;; Registers used:
  4126 ;;		wreg, status,2, status,0
  4127 ;; Tracked objects:
  4128 ;;		On entry : 0/0
  4129 ;;		On exit  : 0/0
  4130 ;;		Unchanged: 0/0
  4131 ;; Data sizes:     COMRAM   BANK0   BANK1   BANK2   BANK3   BANK4   BANK5   BANK6   BANK7   BANK8   BANK9  BANK10  BANK1
      +1  BANK12  BANK13  BANK14  BANK15
  4132 ;;      Params:         0       0       0       0       0       0       0       0       0       0       0       0       
      +0       0       0       0       0
  4133 ;;      Locals:         1       0       0       0       0       0       0       0       0       0       0       0       
      +0       0       0       0       0
  4134 ;;      Temps:          0       0       0       0       0       0       0       0       0       0       0       0       
      +0       0       0       0       0
  4135 ;;      Totals:         1       0       0       0       0       0       0       0       0       0       0       0       
      +0       0       0       0       0
  4136 ;;Total ram usage:        1 bytes
  4137 ;; Hardware stack levels used: 1
  4138 ;; This function calls:
  4139 ;;		Nothing
  4140 ;; This function is called by:
  4141 ;;		_InterruptManager
  4142 ;; This function uses a non-reentrant model
  4143 ;;
  4144                           
  4145                           	psect	text19
  4146   00234A                     __ptext19:
  4147                           	callstack 0
  4148   00234A                     _RB7_ISR:
  4149                           	callstack 26
  4150                           
  4151                           ;incstack = 0
  4152                           ;RB7_ISR@RB7_Source stored from wreg
  4153   00234A  6E01               	movwf	RB7_ISR@RB7_Source^0,c
  4154   00234C                     
  4155                           ;MCAL_Layer/Interrupt/mcal_external_interrupt.c: 167:     (INTCONbits.RBIF = 0);
  4156   00234C  90F2               	bcf	242,0,c	;volatile
  4157   00234E                     
  4158                           ;MCAL_Layer/Interrupt/mcal_external_interrupt.c: 170:     if(0 == RB7_Source){
  4159   00234E  5001               	movf	RB7_ISR@RB7_Source^0,w,c
  4160   002350  A4D8               	btfss	status,2,c
  4161   002352  EFAD  F011         	goto	i2u538_41
  4162   002356  EFAF  F011         	goto	i2u538_40
  4163   00235A                     i2u538_41:
  4164   00235A  EFB1  F011         	goto	i2l6566
  4165   00235E                     i2u538_40:
  4166   00235E  EFB1  F011         	goto	i2l986
  4167   002362                     i2l6566:
  4168   002362                     i2l986:
  4169   002362  0012               	return		;funcret
  4170   002364                     __end_of_RB7_ISR:
  4171                           	callstack 0
  4172                           
  4173 ;; *************** function _RB6_ISR *****************
  4174 ;; Defined at:
  4175 ;;		line 146 in file "MCAL_Layer/Interrupt/mcal_external_interrupt.c"
  4176 ;; Parameters:    Size  Location     Type
  4177 ;;  RB6_Source      1    wreg     unsigned char 
  4178 ;; Auto vars:     Size  Location     Type
  4179 ;;  RB6_Source      1    0[COMRAM] unsigned char 
  4180 ;; Return value:  Size  Location     Type
  4181 ;;                  1    wreg      void 
  4182 ;; Registers used:
  4183 ;;		wreg, status,2, status,0
  4184 ;; Tracked objects:
  4185 ;;		On entry : 0/0
  4186 ;;		On exit  : 0/0
  4187 ;;		Unchanged: 0/0
  4188 ;; Data sizes:     COMRAM   BANK0   BANK1   BANK2   BANK3   BANK4   BANK5   BANK6   BANK7   BANK8   BANK9  BANK10  BANK1
      +1  BANK12  BANK13  BANK14  BANK15
  4189 ;;      Params:         0       0       0       0       0       0       0       0       0       0       0       0       
      +0       0       0       0       0
  4190 ;;      Locals:         1       0       0       0       0       0       0       0       0       0       0       0       
      +0       0       0       0       0
  4191 ;;      Temps:          0       0       0       0       0       0       0       0       0       0       0       0       
      +0       0       0       0       0
  4192 ;;      Totals:         1       0       0       0       0       0       0       0       0       0       0       0       
      +0       0       0       0       0
  4193 ;;Total ram usage:        1 bytes
  4194 ;; Hardware stack levels used: 1
  4195 ;; This function calls:
  4196 ;;		Nothing
  4197 ;; This function is called by:
  4198 ;;		_InterruptManager
  4199 ;; This function uses a non-reentrant model
  4200 ;;
  4201                           
  4202                           	psect	text20
  4203   002364                     __ptext20:
  4204                           	callstack 0
  4205   002364                     _RB6_ISR:
  4206                           	callstack 26
  4207                           
  4208                           ;incstack = 0
  4209                           ;RB6_ISR@RB6_Source stored from wreg
  4210   002364  6E01               	movwf	RB6_ISR@RB6_Source^0,c
  4211   002366                     
  4212                           ;MCAL_Layer/Interrupt/mcal_external_interrupt.c: 148:     (INTCONbits.RBIF = 0);
  4213   002366  90F2               	bcf	242,0,c	;volatile
  4214   002368                     
  4215                           ;MCAL_Layer/Interrupt/mcal_external_interrupt.c: 151:     if(0 == RB6_Source){
  4216   002368  5001               	movf	RB6_ISR@RB6_Source^0,w,c
  4217   00236A  A4D8               	btfss	status,2,c
  4218   00236C  EFBA  F011         	goto	i2u537_41
  4219   002370  EFBC  F011         	goto	i2u537_40
  4220   002374                     i2u537_41:
  4221   002374  EFBE  F011         	goto	i2l6552
  4222   002378                     i2u537_40:
  4223   002378  EFBE  F011         	goto	i2l975
  4224   00237C                     i2l6552:
  4225   00237C                     i2l975:
  4226   00237C  0012               	return		;funcret
  4227   00237E                     __end_of_RB6_ISR:
  4228                           	callstack 0
  4229                           
  4230 ;; *************** function _RB5_ISR *****************
  4231 ;; Defined at:
  4232 ;;		line 127 in file "MCAL_Layer/Interrupt/mcal_external_interrupt.c"
  4233 ;; Parameters:    Size  Location     Type
  4234 ;;  RB5_Source      1    wreg     unsigned char 
  4235 ;; Auto vars:     Size  Location     Type
  4236 ;;  RB5_Source      1    0[COMRAM] unsigned char 
  4237 ;; Return value:  Size  Location     Type
  4238 ;;                  1    wreg      void 
  4239 ;; Registers used:
  4240 ;;		wreg, status,2, status,0
  4241 ;; Tracked objects:
  4242 ;;		On entry : 0/0
  4243 ;;		On exit  : 0/0
  4244 ;;		Unchanged: 0/0
  4245 ;; Data sizes:     COMRAM   BANK0   BANK1   BANK2   BANK3   BANK4   BANK5   BANK6   BANK7   BANK8   BANK9  BANK10  BANK1
      +1  BANK12  BANK13  BANK14  BANK15
  4246 ;;      Params:         0       0       0       0       0       0       0       0       0       0       0       0       
      +0       0       0       0       0
  4247 ;;      Locals:         1       0       0       0       0       0       0       0       0       0       0       0       
      +0       0       0       0       0
  4248 ;;      Temps:          0       0       0       0       0       0       0       0       0       0       0       0       
      +0       0       0       0       0
  4249 ;;      Totals:         1       0       0       0       0       0       0       0       0       0       0       0       
      +0       0       0       0       0
  4250 ;;Total ram usage:        1 bytes
  4251 ;; Hardware stack levels used: 1
  4252 ;; This function calls:
  4253 ;;		Nothing
  4254 ;; This function is called by:
  4255 ;;		_InterruptManager
  4256 ;; This function uses a non-reentrant model
  4257 ;;
  4258                           
  4259                           	psect	text21
  4260   00237E                     __ptext21:
  4261                           	callstack 0
  4262   00237E                     _RB5_ISR:
  4263                           	callstack 26
  4264                           
  4265                           ;incstack = 0
  4266                           ;RB5_ISR@RB5_Source stored from wreg
  4267   00237E  6E01               	movwf	RB5_ISR@RB5_Source^0,c
  4268   002380                     
  4269                           ;MCAL_Layer/Interrupt/mcal_external_interrupt.c: 129:     (INTCONbits.RBIF = 0);
  4270   002380  90F2               	bcf	242,0,c	;volatile
  4271   002382                     
  4272                           ;MCAL_Layer/Interrupt/mcal_external_interrupt.c: 132:     if(0 == RB5_Source){
  4273   002382  5001               	movf	RB5_ISR@RB5_Source^0,w,c
  4274   002384  A4D8               	btfss	status,2,c
  4275   002386  EFC7  F011         	goto	i2u536_41
  4276   00238A  EFC9  F011         	goto	i2u536_40
  4277   00238E                     i2u536_41:
  4278   00238E  EFCB  F011         	goto	i2l6538
  4279   002392                     i2u536_40:
  4280   002392  EFCB  F011         	goto	i2l964
  4281   002396                     i2l6538:
  4282   002396                     i2l964:
  4283   002396  0012               	return		;funcret
  4284   002398                     __end_of_RB5_ISR:
  4285                           	callstack 0
  4286                           
  4287 ;; *************** function _RB4_ISR *****************
  4288 ;; Defined at:
  4289 ;;		line 108 in file "MCAL_Layer/Interrupt/mcal_external_interrupt.c"
  4290 ;; Parameters:    Size  Location     Type
  4291 ;;  RB4_Source      1    wreg     unsigned char 
  4292 ;; Auto vars:     Size  Location     Type
  4293 ;;  RB4_Source      1    0[COMRAM] unsigned char 
  4294 ;; Return value:  Size  Location     Type
  4295 ;;                  1    wreg      void 
  4296 ;; Registers used:
  4297 ;;		wreg, status,2, status,0
  4298 ;; Tracked objects:
  4299 ;;		On entry : 0/0
  4300 ;;		On exit  : 0/0
  4301 ;;		Unchanged: 0/0
  4302 ;; Data sizes:     COMRAM   BANK0   BANK1   BANK2   BANK3   BANK4   BANK5   BANK6   BANK7   BANK8   BANK9  BANK10  BANK1
      +1  BANK12  BANK13  BANK14  BANK15
  4303 ;;      Params:         0       0       0       0       0       0       0       0       0       0       0       0       
      +0       0       0       0       0
  4304 ;;      Locals:         1       0       0       0       0       0       0       0       0       0       0       0       
      +0       0       0       0       0
  4305 ;;      Temps:          0       0       0       0       0       0       0       0       0       0       0       0       
      +0       0       0       0       0
  4306 ;;      Totals:         1       0       0       0       0       0       0       0       0       0       0       0       
      +0       0       0       0       0
  4307 ;;Total ram usage:        1 bytes
  4308 ;; Hardware stack levels used: 1
  4309 ;; This function calls:
  4310 ;;		Nothing
  4311 ;; This function is called by:
  4312 ;;		_InterruptManager
  4313 ;; This function uses a non-reentrant model
  4314 ;;
  4315                           
  4316                           	psect	text22
  4317   002398                     __ptext22:
  4318                           	callstack 0
  4319   002398                     _RB4_ISR:
  4320                           	callstack 26
  4321                           
  4322                           ;incstack = 0
  4323                           ;RB4_ISR@RB4_Source stored from wreg
  4324   002398  6E01               	movwf	RB4_ISR@RB4_Source^0,c
  4325   00239A                     
  4326                           ;MCAL_Layer/Interrupt/mcal_external_interrupt.c: 110:     (INTCONbits.RBIF = 0);
  4327   00239A  90F2               	bcf	242,0,c	;volatile
  4328   00239C                     
  4329                           ;MCAL_Layer/Interrupt/mcal_external_interrupt.c: 113:     if(0 == RB4_Source){
  4330   00239C  5001               	movf	RB4_ISR@RB4_Source^0,w,c
  4331   00239E  A4D8               	btfss	status,2,c
  4332   0023A0  EFD4  F011         	goto	i2u118_41
  4333   0023A4  EFD6  F011         	goto	i2u118_40
  4334   0023A8                     i2u118_41:
  4335   0023A8  EFD8  F011         	goto	i2l3388
  4336   0023AC                     i2u118_40:
  4337   0023AC  EFD8  F011         	goto	i2l953
  4338   0023B0                     i2l3388:
  4339   0023B0                     i2l953:
  4340   0023B0  0012               	return		;funcret
  4341   0023B2                     __end_of_RB4_ISR:
  4342                           	callstack 0
  4343                           
  4344 ;; *************** function _MSSP_SPI_ISR *****************
  4345 ;; Defined at:
  4346 ;;		line 262 in file "MCAL_Layer/SPI/hal_spi.c"
  4347 ;; Parameters:    Size  Location     Type
  4348 ;;		None
  4349 ;; Auto vars:     Size  Location     Type
  4350 ;;		None
  4351 ;; Return value:  Size  Location     Type
  4352 ;;                  1    wreg      void 
  4353 ;; Registers used:
  4354 ;;		None
  4355 ;; Tracked objects:
  4356 ;;		On entry : 0/0
  4357 ;;		On exit  : 0/0
  4358 ;;		Unchanged: 0/0
  4359 ;; Data sizes:     COMRAM   BANK0   BANK1   BANK2   BANK3   BANK4   BANK5   BANK6   BANK7   BANK8   BANK9  BANK10  BANK1
      +1  BANK12  BANK13  BANK14  BANK15
  4360 ;;      Params:         0       0       0       0       0       0       0       0       0       0       0       0       
      +0       0       0       0       0
  4361 ;;      Locals:         0       0       0       0       0       0       0       0       0       0       0       0       
      +0       0       0       0       0
  4362 ;;      Temps:          0       0       0       0       0       0       0       0       0       0       0       0       
      +0       0       0       0       0
  4363 ;;      Totals:         0       0       0       0       0       0       0       0       0       0       0       0       
      +0       0       0       0       0
  4364 ;;Total ram usage:        0 bytes
  4365 ;; Hardware stack levels used: 1
  4366 ;; This function calls:
  4367 ;;		Nothing
  4368 ;; This function is called by:
  4369 ;;		_InterruptManager
  4370 ;; This function uses a non-reentrant model
  4371 ;;
  4372                           
  4373                           	psect	text23
  4374   0023FC                     __ptext23:
  4375                           	callstack 0
  4376   0023FC                     _MSSP_SPI_ISR:
  4377                           	callstack 26
  4378   0023FC                     
  4379                           ;MCAL_Layer/SPI/hal_spi.c: 263:     (PIR1bits.SSPIF = 0);
  4380   0023FC  969E               	bcf	158,3,c	;volatile
  4381   0023FE  0012               	return		;funcret
  4382   002400                     __end_of_MSSP_SPI_ISR:
  4383                           	callstack 0
  4384                           
  4385 ;; *************** function _INT2_ISR *****************
  4386 ;; Defined at:
  4387 ;;		line 96 in file "MCAL_Layer/Interrupt/mcal_external_interrupt.c"
  4388 ;; Parameters:    Size  Location     Type
  4389 ;;		None
  4390 ;; Auto vars:     Size  Location     Type
  4391 ;;		None
  4392 ;; Return value:  Size  Location     Type
  4393 ;;                  1    wreg      void 
  4394 ;; Registers used:
  4395 ;;		None
  4396 ;; Tracked objects:
  4397 ;;		On entry : 0/0
  4398 ;;		On exit  : 0/0
  4399 ;;		Unchanged: 0/0
  4400 ;; Data sizes:     COMRAM   BANK0   BANK1   BANK2   BANK3   BANK4   BANK5   BANK6   BANK7   BANK8   BANK9  BANK10  BANK1
      +1  BANK12  BANK13  BANK14  BANK15
  4401 ;;      Params:         0       0       0       0       0       0       0       0       0       0       0       0       
      +0       0       0       0       0
  4402 ;;      Locals:         0       0       0       0       0       0       0       0       0       0       0       0       
      +0       0       0       0       0
  4403 ;;      Temps:          0       0       0       0       0       0       0       0       0       0       0       0       
      +0       0       0       0       0
  4404 ;;      Totals:         0       0       0       0       0       0       0       0       0       0       0       0       
      +0       0       0       0       0
  4405 ;;Total ram usage:        0 bytes
  4406 ;; Hardware stack levels used: 1
  4407 ;; This function calls:
  4408 ;;		Nothing
  4409 ;; This function is called by:
  4410 ;;		_InterruptManager
  4411 ;; This function uses a non-reentrant model
  4412 ;;
  4413                           
  4414                           	psect	text24
  4415   002400                     __ptext24:
  4416                           	callstack 0
  4417   002400                     _INT2_ISR:
  4418                           	callstack 26
  4419   002400                     
  4420                           ;MCAL_Layer/Interrupt/mcal_external_interrupt.c: 98:     (INTCON3bits.INT2IF = 0);
  4421   002400  92F0               	bcf	240,1,c	;volatile
  4422   002402  0012               	return		;funcret
  4423   002404                     __end_of_INT2_ISR:
  4424                           	callstack 0
  4425                           
  4426 ;; *************** function _INT1_ISR *****************
  4427 ;; Defined at:
  4428 ;;		line 87 in file "MCAL_Layer/Interrupt/mcal_external_interrupt.c"
  4429 ;; Parameters:    Size  Location     Type
  4430 ;;		None
  4431 ;; Auto vars:     Size  Location     Type
  4432 ;;		None
  4433 ;; Return value:  Size  Location     Type
  4434 ;;                  1    wreg      void 
  4435 ;; Registers used:
  4436 ;;		None
  4437 ;; Tracked objects:
  4438 ;;		On entry : 0/0
  4439 ;;		On exit  : 0/0
  4440 ;;		Unchanged: 0/0
  4441 ;; Data sizes:     COMRAM   BANK0   BANK1   BANK2   BANK3   BANK4   BANK5   BANK6   BANK7   BANK8   BANK9  BANK10  BANK1
      +1  BANK12  BANK13  BANK14  BANK15
  4442 ;;      Params:         0       0       0       0       0       0       0       0       0       0       0       0       
      +0       0       0       0       0
  4443 ;;      Locals:         0       0       0       0       0       0       0       0       0       0       0       0       
      +0       0       0       0       0
  4444 ;;      Temps:          0       0       0       0       0       0       0       0       0       0       0       0       
      +0       0       0       0       0
  4445 ;;      Totals:         0       0       0       0       0       0       0       0       0       0       0       0       
      +0       0       0       0       0
  4446 ;;Total ram usage:        0 bytes
  4447 ;; Hardware stack levels used: 1
  4448 ;; This function calls:
  4449 ;;		Nothing
  4450 ;; This function is called by:
  4451 ;;		_InterruptManager
  4452 ;; This function uses a non-reentrant model
  4453 ;;
  4454                           
  4455                           	psect	text25
  4456   002404                     __ptext25:
  4457                           	callstack 0
  4458   002404                     _INT1_ISR:
  4459                           	callstack 26
  4460   002404                     
  4461                           ;MCAL_Layer/Interrupt/mcal_external_interrupt.c: 89:     (INTCON3bits.INT1IF = 0);
  4462   002404  90F0               	bcf	240,0,c	;volatile
  4463   002406  0012               	return		;funcret
  4464   002408                     __end_of_INT1_ISR:
  4465                           	callstack 0
  4466                           
  4467 ;; *************** function _INT0_ISR *****************
  4468 ;; Defined at:
  4469 ;;		line 75 in file "MCAL_Layer/Interrupt/mcal_external_interrupt.c"
  4470 ;; Parameters:    Size  Location     Type
  4471 ;;		None
  4472 ;; Auto vars:     Size  Location     Type
  4473 ;;		None
  4474 ;; Return value:  Size  Location     Type
  4475 ;;                  1    wreg      void 
  4476 ;; Registers used:
  4477 ;;		None
  4478 ;; Tracked objects:
  4479 ;;		On entry : 0/0
  4480 ;;		On exit  : 0/0
  4481 ;;		Unchanged: 0/0
  4482 ;; Data sizes:     COMRAM   BANK0   BANK1   BANK2   BANK3   BANK4   BANK5   BANK6   BANK7   BANK8   BANK9  BANK10  BANK1
      +1  BANK12  BANK13  BANK14  BANK15
  4483 ;;      Params:         0       0       0       0       0       0       0       0       0       0       0       0       
      +0       0       0       0       0
  4484 ;;      Locals:         0       0       0       0       0       0       0       0       0       0       0       0       
      +0       0       0       0       0
  4485 ;;      Temps:          0       0       0       0       0       0       0       0       0       0       0       0       
      +0       0       0       0       0
  4486 ;;      Totals:         0       0       0       0       0       0       0       0       0       0       0       0       
      +0       0       0       0       0
  4487 ;;Total ram usage:        0 bytes
  4488 ;; Hardware stack levels used: 1
  4489 ;; This function calls:
  4490 ;;		Nothing
  4491 ;; This function is called by:
  4492 ;;		_InterruptManager
  4493 ;; This function uses a non-reentrant model
  4494 ;;
  4495                           
  4496                           	psect	text26
  4497   002408                     __ptext26:
  4498                           	callstack 0
  4499   002408                     _INT0_ISR:
  4500                           	callstack 26
  4501   002408                     
  4502                           ;MCAL_Layer/Interrupt/mcal_external_interrupt.c: 77:     (INTCONbits.INT0IF = 0);
  4503   002408  92F2               	bcf	242,1,c	;volatile
  4504   00240A  0012               	return		;funcret
  4505   00240C                     __end_of_INT0_ISR:
  4506                           	callstack 0
  4507                           
  4508 ;; *************** function _CCP2_ISR *****************
  4509 ;; Defined at:
  4510 ;;		line 250 in file "MCAL_Layer/CCP/hal_ccp.c"
  4511 ;; Parameters:    Size  Location     Type
  4512 ;;		None
  4513 ;; Auto vars:     Size  Location     Type
  4514 ;;		None
  4515 ;; Return value:  Size  Location     Type
  4516 ;;                  1    wreg      void 
  4517 ;; Registers used:
  4518 ;;		None
  4519 ;; Tracked objects:
  4520 ;;		On entry : 0/0
  4521 ;;		On exit  : 0/0
  4522 ;;		Unchanged: 0/0
  4523 ;; Data sizes:     COMRAM   BANK0   BANK1   BANK2   BANK3   BANK4   BANK5   BANK6   BANK7   BANK8   BANK9  BANK10  BANK1
      +1  BANK12  BANK13  BANK14  BANK15
  4524 ;;      Params:         0       0       0       0       0       0       0       0       0       0       0       0       
      +0       0       0       0       0
  4525 ;;      Locals:         0       0       0       0       0       0       0       0       0       0       0       0       
      +0       0       0       0       0
  4526 ;;      Temps:          0       0       0       0       0       0       0       0       0       0       0       0       
      +0       0       0       0       0
  4527 ;;      Totals:         0       0       0       0       0       0       0       0       0       0       0       0       
      +0       0       0       0       0
  4528 ;;Total ram usage:        0 bytes
  4529 ;; Hardware stack levels used: 1
  4530 ;; This function calls:
  4531 ;;		Nothing
  4532 ;; This function is called by:
  4533 ;;		_InterruptManager
  4534 ;; This function uses a non-reentrant model
  4535 ;;
  4536                           
  4537                           	psect	text27
  4538   00240C                     __ptext27:
  4539                           	callstack 0
  4540   00240C                     _CCP2_ISR:
  4541                           	callstack 26
  4542   00240C                     
  4543                           ;MCAL_Layer/CCP/hal_ccp.c: 251:     (PIR2bits.CCP2IF = 0);
  4544   00240C  90A1               	bcf	161,0,c	;volatile
  4545   00240E  0012               	return		;funcret
  4546   002410                     __end_of_CCP2_ISR:
  4547                           	callstack 0
  4548                           
  4549 ;; *************** function _CCP1_ISR *****************
  4550 ;; Defined at:
  4551 ;;		line 242 in file "MCAL_Layer/CCP/hal_ccp.c"
  4552 ;; Parameters:    Size  Location     Type
  4553 ;;		None
  4554 ;; Auto vars:     Size  Location     Type
  4555 ;;		None
  4556 ;; Return value:  Size  Location     Type
  4557 ;;                  1    wreg      void 
  4558 ;; Registers used:
  4559 ;;		None
  4560 ;; Tracked objects:
  4561 ;;		On entry : 0/0
  4562 ;;		On exit  : 0/0
  4563 ;;		Unchanged: 0/0
  4564 ;; Data sizes:     COMRAM   BANK0   BANK1   BANK2   BANK3   BANK4   BANK5   BANK6   BANK7   BANK8   BANK9  BANK10  BANK1
      +1  BANK12  BANK13  BANK14  BANK15
  4565 ;;      Params:         0       0       0       0       0       0       0       0       0       0       0       0       
      +0       0       0       0       0
  4566 ;;      Locals:         0       0       0       0       0       0       0       0       0       0       0       0       
      +0       0       0       0       0
  4567 ;;      Temps:          0       0       0       0       0       0       0       0       0       0       0       0       
      +0       0       0       0       0
  4568 ;;      Totals:         0       0       0       0       0       0       0       0       0       0       0       0       
      +0       0       0       0       0
  4569 ;;Total ram usage:        0 bytes
  4570 ;; Hardware stack levels used: 1
  4571 ;; This function calls:
  4572 ;;		Nothing
  4573 ;; This function is called by:
  4574 ;;		_InterruptManager
  4575 ;; This function uses a non-reentrant model
  4576 ;;
  4577                           
  4578                           	psect	text28
  4579   002410                     __ptext28:
  4580                           	callstack 0
  4581   002410                     _CCP1_ISR:
  4582                           	callstack 26
  4583   002410                     
  4584                           ;MCAL_Layer/CCP/hal_ccp.c: 243:     (PIR1bits.CCP1IF = 0);
  4585   002410  949E               	bcf	158,2,c	;volatile
  4586   002412  0012               	return		;funcret
  4587   002414                     __end_of_CCP1_ISR:
  4588                           	callstack 0
  4589                           
  4590 ;; *************** function _ADC_ISR *****************
  4591 ;; Defined at:
  4592 ;;		line 298 in file "MCAL_Layer/ADC/hal_adc.c"
  4593 ;; Parameters:    Size  Location     Type
  4594 ;;		None
  4595 ;; Auto vars:     Size  Location     Type
  4596 ;;		None
  4597 ;; Return value:  Size  Location     Type
  4598 ;;                  1    wreg      void 
  4599 ;; Registers used:
  4600 ;;		None
  4601 ;; Tracked objects:
  4602 ;;		On entry : 0/0
  4603 ;;		On exit  : 0/0
  4604 ;;		Unchanged: 0/0
  4605 ;; Data sizes:     COMRAM   BANK0   BANK1   BANK2   BANK3   BANK4   BANK5   BANK6   BANK7   BANK8   BANK9  BANK10  BANK1
      +1  BANK12  BANK13  BANK14  BANK15
  4606 ;;      Params:         0       0       0       0       0       0       0       0       0       0       0       0       
      +0       0       0       0       0
  4607 ;;      Locals:         0       0       0       0       0       0       0       0       0       0       0       0       
      +0       0       0       0       0
  4608 ;;      Temps:          0       0       0       0       0       0       0       0       0       0       0       0       
      +0       0       0       0       0
  4609 ;;      Totals:         0       0       0       0       0       0       0       0       0       0       0       0       
      +0       0       0       0       0
  4610 ;;Total ram usage:        0 bytes
  4611 ;; Hardware stack levels used: 1
  4612 ;; This function calls:
  4613 ;;		Nothing
  4614 ;; This function is called by:
  4615 ;;		_InterruptManager
  4616 ;; This function uses a non-reentrant model
  4617 ;;
  4618                           
  4619                           	psect	text29
  4620   002414                     __ptext29:
  4621                           	callstack 0
  4622   002414                     _ADC_ISR:
  4623                           	callstack 26
  4624   002414                     
  4625                           ;MCAL_Layer/ADC/hal_adc.c: 299:     (PIR1bits.ADIF = 0);
  4626   002414  9C9E               	bcf	158,6,c	;volatile
  4627   002416  0012               	return		;funcret
  4628   002418                     __end_of_ADC_ISR:
  4629                           	callstack 0
  4630                           
  4631                           	psect	rparam
  4632   000000                     
  4633                           	psect	temp
  4634   00007E                     btemp:
  4635                           	callstack 0
  4636   00007E                     	ds	1
  4637   000000                     int$flags	set	btemp
  4638   000000                     wtemp8	set	btemp+1
  4639   000000                     ttemp5	set	btemp+1
  4640   000000                     ttemp6	set	btemp+4
  4641   000000                     ttemp7	set	btemp+8
  4642                           
  4643                           	psect	idloc
  4644                           
  4645                           ;Config register IDLOC0 @ 0x200000
  4646                           ;	unspecified, using default values
  4647   200000                     	org	2097152
  4648   200000  FF                 	db	255
  4649                           
  4650                           ;Config register IDLOC1 @ 0x200001
  4651                           ;	unspecified, using default values
  4652   200001                     	org	2097153
  4653   200001  FF                 	db	255
  4654                           
  4655                           ;Config register IDLOC2 @ 0x200002
  4656                           ;	unspecified, using default values
  4657   200002                     	org	2097154
  4658   200002  FF                 	db	255
  4659                           
  4660                           ;Config register IDLOC3 @ 0x200003
  4661                           ;	unspecified, using default values
  4662   200003                     	org	2097155
  4663   200003  FF                 	db	255
  4664                           
  4665                           ;Config register IDLOC4 @ 0x200004
  4666                           ;	unspecified, using default values
  4667   200004                     	org	2097156
  4668   200004  FF                 	db	255
  4669                           
  4670                           ;Config register IDLOC5 @ 0x200005
  4671                           ;	unspecified, using default values
  4672   200005                     	org	2097157
  4673   200005  FF                 	db	255
  4674                           
  4675                           ;Config register IDLOC6 @ 0x200006
  4676                           ;	unspecified, using default values
  4677   200006                     	org	2097158
  4678   200006  FF                 	db	255
  4679                           
  4680                           ;Config register IDLOC7 @ 0x200007
  4681                           ;	unspecified, using default values
  4682   200007                     	org	2097159
  4683   200007  FF                 	db	255
  4684                           
  4685                           	psect	config
  4686                           
  4687                           ; Padding undefined space
  4688   300000                     	org	3145728
  4689   300000  FF                 	db	255
  4690                           
  4691                           ;Config register CONFIG1H @ 0x300001
  4692                           ;	Oscillator Selection bits
  4693                           ;	OSC = RCIO6, External RC oscillator, port function on RA6
  4694                           ;	Fail-Safe Clock Monitor Enable bit
  4695                           ;	FCMEN = OFF, Fail-Safe Clock Monitor disabled
  4696                           ;	Internal/External Oscillator Switchover bit
  4697                           ;	IESO = OFF, Oscillator Switchover mode disabled
  4698   300001                     	org	3145729
  4699   300001  07                 	db	7
  4700                           
  4701                           ;Config register CONFIG2L @ 0x300002
  4702                           ;	Power-up Timer Enable bit
  4703                           ;	PWRT = OFF, PWRT disabled
  4704                           ;	Brown-out Reset Enable bits
  4705                           ;	BOREN = SBORDIS, Brown-out Reset enabled in hardware only (SBOREN is disabled)
  4706                           ;	Brown Out Reset Voltage bits
  4707                           ;	BORV = 3, Minimum setting
  4708   300002                     	org	3145730
  4709   300002  1F                 	db	31
  4710                           
  4711                           ;Config register CONFIG2H @ 0x300003
  4712                           ;	Watchdog Timer Enable bit
  4713                           ;	WDT = ON, WDT enabled
  4714                           ;	Watchdog Timer Postscale Select bits
  4715                           ;	WDTPS = 32768, 1:32768
  4716   300003                     	org	3145731
  4717   300003  1F                 	db	31
  4718                           
  4719                           ; Padding undefined space
  4720   300004                     	org	3145732
  4721   300004  FF                 	db	255
  4722                           
  4723                           ;Config register CONFIG3H @ 0x300005
  4724                           ;	CCP2 MUX bit
  4725                           ;	CCP2MX = PORTC, CCP2 input/output is multiplexed with RC1
  4726                           ;	PORTB A/D Enable bit
  4727                           ;	PBADEN = OFF, PORTB<4:0> pins are configured as digital I/O on Reset
  4728                           ;	Low-Power Timer1 Oscillator Enable bit
  4729                           ;	LPT1OSC = OFF, Timer1 configured for higher power operation
  4730                           ;	MCLR Pin Enable bit
  4731                           ;	MCLRE = ON, MCLR pin enabled; RE3 input pin disabled
  4732   300005                     	org	3145733
  4733   300005  81                 	db	129
  4734                           
  4735                           ;Config register CONFIG4L @ 0x300006
  4736                           ;	Stack Full/Underflow Reset Enable bit
  4737                           ;	STVREN = ON, Stack full/underflow will cause Reset
  4738                           ;	Single-Supply ICSP Enable bit
  4739                           ;	LVP = ON, Single-Supply ICSP enabled
  4740                           ;	Extended Instruction Set Enable bit
  4741                           ;	XINST = OFF, Instruction set extension and Indexed Addressing mode disabled (Legacy mo
      +                          de)
  4742                           ;	Background Debugger Enable bit
  4743                           ;	DEBUG = 0x1, unprogrammed default
  4744   300006                     	org	3145734
  4745   300006  85                 	db	133
  4746                           
  4747                           ; Padding undefined space
  4748   300007                     	org	3145735
  4749   300007  FF                 	db	255
  4750                           
  4751                           ;Config register CONFIG5L @ 0x300008
  4752                           ;	Code Protection bit
  4753                           ;	CP0 = OFF, Block 0 (000800-003FFFh) not code-protected
  4754                           ;	Code Protection bit
  4755                           ;	CP1 = OFF, Block 1 (004000-007FFFh) not code-protected
  4756                           ;	Code Protection bit
  4757                           ;	CP2 = OFF, Block 2 (008000-00BFFFh) not code-protected
  4758                           ;	Code Protection bit
  4759                           ;	CP3 = OFF, Block 3 (00C000-00FFFFh) not code-protected
  4760   300008                     	org	3145736
  4761   300008  0F                 	db	15
  4762                           
  4763                           ;Config register CONFIG5H @ 0x300009
  4764                           ;	Boot Block Code Protection bit
  4765                           ;	CPB = OFF, Boot block (000000-0007FFh) not code-protected
  4766                           ;	Data EEPROM Code Protection bit
  4767                           ;	CPD = OFF, Data EEPROM not code-protected
  4768   300009                     	org	3145737
  4769   300009  C0                 	db	192
  4770                           
  4771                           ;Config register CONFIG6L @ 0x30000A
  4772                           ;	Write Protection bit
  4773                           ;	WRT0 = OFF, Block 0 (000800-003FFFh) not write-protected
  4774                           ;	Write Protection bit
  4775                           ;	WRT1 = OFF, Block 1 (004000-007FFFh) not write-protected
  4776                           ;	Write Protection bit
  4777                           ;	WRT2 = OFF, Block 2 (008000-00BFFFh) not write-protected
  4778                           ;	Write Protection bit
  4779                           ;	WRT3 = OFF, Block 3 (00C000-00FFFFh) not write-protected
  4780   30000A                     	org	3145738
  4781   30000A  0F                 	db	15
  4782                           
  4783                           ;Config register CONFIG6H @ 0x30000B
  4784                           ;	Configuration Register Write Protection bit
  4785                           ;	WRTC = OFF, Configuration registers (300000-3000FFh) not write-protected
  4786                           ;	Boot Block Write Protection bit
  4787                           ;	WRTB = OFF, Boot Block (000000-0007FFh) not write-protected
  4788                           ;	Data EEPROM Write Protection bit
  4789                           ;	WRTD = OFF, Data EEPROM not write-protected
  4790   30000B                     	org	3145739
  4791   30000B  E0                 	db	224
  4792                           
  4793                           ;Config register CONFIG7L @ 0x30000C
  4794                           ;	Table Read Protection bit
  4795                           ;	EBTR0 = OFF, Block 0 (000800-003FFFh) not protected from table reads executed in other
      +                           blocks
  4796                           ;	Table Read Protection bit
  4797                           ;	EBTR1 = OFF, Block 1 (004000-007FFFh) not protected from table reads executed in other
      +                           blocks
  4798                           ;	Table Read Protection bit
  4799                           ;	EBTR2 = OFF, Block 2 (008000-00BFFFh) not protected from table reads executed in other
      +                           blocks
  4800                           ;	Table Read Protection bit
  4801                           ;	EBTR3 = OFF, Block 3 (00C000-00FFFFh) not protected from table reads executed in other
      +                           blocks
  4802   30000C                     	org	3145740
  4803   30000C  0F                 	db	15
  4804                           
  4805                           ;Config register CONFIG7H @ 0x30000D
  4806                           ;	Boot Block Table Read Protection bit
  4807                           ;	EBTRB = OFF, Boot Block (000000-0007FFh) not protected from table reads executed in ot
      +                          her blocks
  4808   30000D                     	org	3145741
  4809   30000D  40                 	db	64
  4810                           tosu	equ	0xFFF
  4811                           tosh	equ	0xFFE
  4812                           tosl	equ	0xFFD
  4813                           stkptr	equ	0xFFC
  4814                           pclatu	equ	0xFFB
  4815                           pclath	equ	0xFFA
  4816                           pcl	equ	0xFF9
  4817                           tblptru	equ	0xFF8
  4818                           tblptrh	equ	0xFF7
  4819                           tblptrl	equ	0xFF6
  4820                           tablat	equ	0xFF5
  4821                           prodh	equ	0xFF4
  4822                           prodl	equ	0xFF3
  4823                           indf0	equ	0xFEF
  4824                           postinc0	equ	0xFEE
  4825                           postdec0	equ	0xFED
  4826                           preinc0	equ	0xFEC
  4827                           plusw0	equ	0xFEB
  4828                           fsr0h	equ	0xFEA
  4829                           fsr0l	equ	0xFE9
  4830                           wreg	equ	0xFE8
  4831                           indf1	equ	0xFE7
  4832                           postinc1	equ	0xFE6
  4833                           postdec1	equ	0xFE5
  4834                           preinc1	equ	0xFE4
  4835                           plusw1	equ	0xFE3
  4836                           fsr1h	equ	0xFE2
  4837                           fsr1l	equ	0xFE1
  4838                           bsr	equ	0xFE0
  4839                           indf2	equ	0xFDF
  4840                           postinc2	equ	0xFDE
  4841                           postdec2	equ	0xFDD
  4842                           preinc2	equ	0xFDC
  4843                           plusw2	equ	0xFDB
  4844                           fsr2h	equ	0xFDA
  4845                           fsr2l	equ	0xFD9
  4846                           status	equ	0xFD8

Data Sizes:
    Strings     3
    Constant    16
    Data        174
    BSS         76
    Persistent  0
    Stack       0

Auto Spaces:
    Space          Size  Autos    Used
    COMRAM          126     74     125
    BANK0           128      0     125
    BANK1           256      0      74
    BANK2           256      0       0
    BANK3           256      0       0
    BANK4           256      0       0
    BANK5           256      0       0
    BANK6           256      0       0
    BANK7           256      0       0
    BANK8           256      0       0
    BANK9           256      0       0
    BANK10          256      0       0
    BANK11          256      0       0
    BANK12          256      0       0
    BANK13          256      0       0
    BANK14          256      0       0
    BANK15          128      0       0

Pointer List with Targets:

    vfprintf$2	PTR PTR void  size(2) Largest target is 2
		 -> sprintf@ap(COMRAM[2]), 

    vfprintf$1	PTR const unsigned char  size(2) Largest target is 3
		 -> STR_3(CODE[3]), STR_2(CODE[3]), STR_1(CODE[3]), 

    vfprintf$0	PTR struct _IO_FILE size(2) Largest target is 11
		 -> sprintf@f(COMRAM[11]), 

    S5102$source	PTR const unsigned char  size(2) Largest target is 0

    f...source	PTR const unsigned char  size(2) Largest target is 0

    S5102$buffer	PTR unsigned char  size(2) Largest target is 0

    f...buffer	PTR unsigned char  size(2) Largest target is 0

    I2C_Report_Receive_Overflow_InterruptHandle	PTR FTN()void  size(2) Largest target is 1
		 -> Absolute function(), 

    MSSP_I2C_Interrupt_Configurations@i2c_obj.I2C_Report_Receive_Overflow	PTR FTN()void  size(2) Largest target is 1
		 -> Absolute function(), 

    MSSP_I2C_Interrupt_Configurations@i2c_obj.I2C_DefaultInterruptHandler	PTR FTN()void  size(2) Largest target is 1
		 -> Absolute function(), 

    MSSP_I2C_Interrupt_Configurations@i2c_obj.I2C_Report_Write_Collision	PTR FTN()void  size(2) Largest target is 1
		 -> Absolute function(), 

    MSSP_I2C_Interrupt_Configurations@i2c_obj	PTR const struct . size(2) Largest target is 13
		 -> i2c_obj(BANK0[13]), 

    I2C_Slave_Mode_Configurations@i2c_obj.I2C_Report_Receive_Overflow	PTR FTN()void  size(2) Largest target is 1
		 -> Absolute function(), 

    I2C_Slave_Mode_Configurations@i2c_obj.I2C_DefaultInterruptHandler	PTR FTN()void  size(2) Largest target is 1
		 -> Absolute function(), 

    I2C_Slave_Mode_Configurations@i2c_obj.I2C_Report_Write_Collision	PTR FTN()void  size(2) Largest target is 1
		 -> Absolute function(), 

    I2C_Slave_Mode_Configurations@i2c_obj	PTR const struct . size(2) Largest target is 13
		 -> i2c_obj(BANK0[13]), 

    I2C_Master_Mode_Clock_Configurations@i2c_obj.I2C_Report_Receive_Overflow	PTR FTN()void  size(2) Largest target is 1
		 -> Absolute function(), 

    I2C_Master_Mode_Clock_Configurations@i2c_obj.I2C_DefaultInterruptHandler	PTR FTN()void  size(2) Largest target is 1
		 -> Absolute function(), 

    I2C_Master_Mode_Clock_Configurations@i2c_obj.I2C_Report_Write_Collision	PTR FTN()void  size(2) Largest target is 1
		 -> Absolute function(), 

    I2C_Master_Mode_Clock_Configurations@i2c_obj	PTR const struct . size(2) Largest target is 13
		 -> i2c_obj(BANK0[13]), 

    I2C_Report_Write_Collision_InterruptHandler	PTR FTN()void  size(2) Largest target is 1
		 -> Absolute function(), 

    I2C_DefaultInterruptHandle	PTR FTN()void  size(2) Largest target is 1
		 -> Absolute function(), 

    MSSP_I2C_Master_Send_Stop@i2c_obj	PTR const struct . size(2) Largest target is 13
		 -> i2c_obj(BANK0[13]), 

    MSSP_I2C_Master_Send_Start@i2c_obj	PTR const struct . size(2) Largest target is 13
		 -> i2c_obj(BANK0[13]), 

    MSSP_I2C_Init@i2c_obj.I2C_Report_Receive_Overflow	PTR FTN()void  size(2) Largest target is 1
		 -> Absolute function(), 

    MSSP_I2C_Init@i2c_obj.I2C_DefaultInterruptHandler	PTR FTN()void  size(2) Largest target is 1
		 -> Absolute function(), 

    MSSP_I2C_Init@i2c_obj.I2C_Report_Write_Collision	PTR FTN()void  size(2) Largest target is 1
		 -> Absolute function(), 

    MSSP_I2C_Init@i2c_obj	PTR const struct . size(2) Largest target is 13
		 -> i2c_obj(BANK0[13]), 

    S4184$I2C_Report_Receive_Overflow	PTR FTN()void  size(2) Largest target is 1
		 -> Absolute function(), 

    i2c_obj.I2C_Report_Receive_Overflow	PTR FTN()void  size(2) Largest target is 1
		 -> Absolute function(), 

    S4184$I2C_DefaultInterruptHandler	PTR FTN()void  size(2) Largest target is 1
		 -> Absolute function(), 

    i2c_obj.I2C_DefaultInterruptHandler	PTR FTN()void  size(2) Largest target is 1
		 -> Absolute function(), 

    S4184$I2C_Report_Write_Collision	PTR FTN()void  size(2) Largest target is 1
		 -> Absolute function(), 

    i2c_obj.I2C_Report_Write_Collision	PTR FTN()void  size(2) Largest target is 1
		 -> Absolute function(), 

    EUSART_OverrunErrorHandler	PTR FTN()void  size(2) Largest target is 1
		 -> Absolute function(), 

    EUSART_FramingErrorHandler	PTR FTN()void  size(2) Largest target is 1
		 -> Absolute function(), 

    EUSART_RxInterruptHandler	PTR FTN()void  size(2) Largest target is 1
		 -> Absolute function(), 

    EUSART_ASYNC_RX_Init@_eusart.EUSART_OverrunErrorHandler	PTR FTN()void  size(2) Largest target is 0

    EUSART_ASYNC_RX_Init@_eusart.EUSART_FramingErrorHandler	PTR FTN()void  size(2) Largest target is 0

    EUSART_ASYNC_RX_Init@_eusart.EUSART_RxDefaultInterruptHandler	PTR FTN()void  size(2) Largest target is 0

    EUSART_ASYNC_RX_Init@_eusart.EUSART_TxDefaultInterruptHandler	PTR FTN()void  size(2) Largest target is 0

    EUSART_TxInterruptHandler	PTR FTN()void  size(2) Largest target is 1
		 -> Absolute function(), 

    EUSART_ASYNC_TX_Init@_eusart.EUSART_OverrunErrorHandler	PTR FTN()void  size(2) Largest target is 0

    EUSART_ASYNC_TX_Init@_eusart.EUSART_FramingErrorHandler	PTR FTN()void  size(2) Largest target is 0

    EUSART_ASYNC_TX_Init@_eusart.EUSART_RxDefaultInterruptHandler	PTR FTN()void  size(2) Largest target is 0

    EUSART_ASYNC_TX_Init@_eusart.EUSART_TxDefaultInterruptHandler	PTR FTN()void  size(2) Largest target is 0

    S3733$EUSART_OverrunErrorHandler	PTR FTN()void  size(2) Largest target is 0

    EUSART_Baud_Rate_Calculation@_eusart.EUSART_OverrunErrorHandler	PTR FTN()void  size(2) Largest target is 0

    S3733$EUSART_FramingErrorHandler	PTR FTN()void  size(2) Largest target is 0

    EUSART_Baud_Rate_Calculation@_eusart.EUSART_FramingErrorHandler	PTR FTN()void  size(2) Largest target is 0

    S3733$EUSART_RxDefaultInterruptHandler	PTR FTN()void  size(2) Largest target is 0

    EUSART_Baud_Rate_Calculation@_eusart.EUSART_RxDefaultInterruptHandler	PTR FTN()void  size(2) Largest target is 0

    S3733$EUSART_TxDefaultInterruptHandler	PTR FTN()void  size(2) Largest target is 0

    EUSART_Baud_Rate_Calculation@_eusart.EUSART_TxDefaultInterruptHandler	PTR FTN()void  size(2) Largest target is 0

    Timer3_Mode_Select@_timer.TMR3_InterruptHandler	PTR FTN()void  size(2) Largest target is 0

    TMR3_InterruptHandler	PTR FTN()void  size(2) Largest target is 1
		 -> Absolute function(), 

    S3539$TMR3_InterruptHandler	PTR FTN()void  size(2) Largest target is 0

    Timer3_Init@_timer.TMR3_InterruptHandler	PTR FTN()void  size(2) Largest target is 0

    TMR2_InterruptHandler	PTR FTN()void  size(2) Largest target is 1
		 -> Absolute function(), 

    S3410$TMR2_InterruptHandler	PTR FTN()void  size(2) Largest target is 0

    Timer2_Init@_timer.TMR2_InterruptHandler	PTR FTN()void  size(2) Largest target is 0

    Timer1_Mode_Select@_timer.TMR1_InterruptHandler	PTR FTN()void  size(2) Largest target is 0

    TMR1_InterruptHandler	PTR FTN()void  size(2) Largest target is 1
		 -> Absolute function(), 

    S3221$TMR1_InterruptHandler	PTR FTN()void  size(2) Largest target is 0

    Timer1_Init@_timer.TMR1_InterruptHandler	PTR FTN()void  size(2) Largest target is 0

    Timer0_Register_Size_Config@_timer.TMR0_InterruptHandler	PTR FTN()void  size(2) Largest target is 0

    Timer0_Mode_Select@_timer.TMR0_InterruptHandler	PTR FTN()void  size(2) Largest target is 0

    Timer0_Prescaler_Config@_timer.TMR0_InterruptHandler	PTR FTN()void  size(2) Largest target is 0

    TMR0_InterruptHandler	PTR FTN()void  size(2) Largest target is 1
		 -> Absolute function(), 

    S3056$TMR0_InterruptHandler	PTR FTN()void  size(2) Largest target is 0

    Timer0_Init@_timer.TMR0_InterruptHandler	PTR FTN()void  size(2) Largest target is 0

    SPI_InterruptHandler_function@_spi.SPI_InterruptHandler	PTR FTN()void  size(2) Largest target is 0

    SPI_InterruptHandler	PTR FTN()void  size(2) Largest target is 1
		 -> Absolute function(), 

    SPI_Slave_Gpio_Cfg@_spi.SPI_InterruptHandler	PTR FTN()void  size(2) Largest target is 0

    S2634$SPI_InterruptHandler	PTR FTN()void  size(2) Largest target is 0

    SPI_Init@_spi.SPI_InterruptHandler	PTR FTN()void  size(2) Largest target is 0

    Interrupt_INTx_SetInterruptHandler@int_obj.EXT_InterruptHandler	PTR FTN()void  size(2) Largest target is 0

    Interrupt_INTx_Clear_Flag@int_obj.EXT_InterruptHandler	PTR FTN()void  size(2) Largest target is 0

    Interrupt_INTx_Pin_Init@int_obj.EXT_InterruptHandler	PTR FTN()void  size(2) Largest target is 0

    Interrupt_INTx_Edge_Init@int_obj.EXT_InterruptHandler	PTR FTN()void  size(2) Largest target is 0

    Interrupt_INTx_Disable@int_obj.EXT_InterruptHandler	PTR FTN()void  size(2) Largest target is 0

    S2036$EXT_InterruptHandler	PTR FTN()void  size(2) Largest target is 0

    Interrupt_INTx_Enable@int_obj.EXT_InterruptHandler	PTR FTN()void  size(2) Largest target is 0

    S2152$EXT_InterruptHandler_LOW	PTR FTN()void  size(2) Largest target is 0

    Interrupt_RBx_Init@int_obj.EXT_InterruptHandler_LOW	PTR FTN()void  size(2) Largest target is 0

    S2152$EXT_InterruptHandler_HIGH	PTR FTN()void  size(2) Largest target is 0

    Interrupt_RBx_Init@int_obj.EXT_InterruptHandler_HIGH	PTR FTN()void  size(2) Largest target is 0

    RB7_InterruptHandler_LOW	PTR FTN()void  size(2) Largest target is 1
		 -> Absolute function(), 

    RB7_InterruptHandler_HIGH	PTR FTN()void  size(2) Largest target is 1
		 -> Absolute function(), 

    RB6_InterruptHandler_LOW	PTR FTN()void  size(2) Largest target is 1
		 -> Absolute function(), 

    RB6_InterruptHandler_HIGH	PTR FTN()void  size(2) Largest target is 1
		 -> Absolute function(), 

    RB5_InterruptHandler_LOW	PTR FTN()void  size(2) Largest target is 1
		 -> Absolute function(), 

    RB5_InterruptHandler_HIGH	PTR FTN()void  size(2) Largest target is 1
		 -> Absolute function(), 

    RB4_InterruptHandler_LOW	PTR FTN()void  size(2) Largest target is 1
		 -> Absolute function(), 

    RB4_InterruptHandler_HIGH	PTR FTN()void  size(2) Largest target is 1
		 -> Absolute function(), 

    INT2_InterruptHandler	PTR FTN()void  size(2) Largest target is 1
		 -> Absolute function(), 

    INT1_InterruptHandler	PTR FTN()void  size(2) Largest target is 1
		 -> Absolute function(), 

    INT0_InterruptHandler	PTR FTN()void  size(2) Largest target is 1
		 -> Absolute function(), 

    port_registers	PTR volatile unsigned char [5] size(2) Largest target is 1
		 -> PORTE(BITBIGSFRlllll[1]), PORTD(BITBIGSFRlllll[1]), PORTC(BITBIGSFRlllll[1]), PORTB(BITBIGSFRlllll[1]), 
		 -> PORTA(BITBIGSFRlllll[1]), 

    lat_registers	PTR volatile unsigned char [5] size(2) Largest target is 1
		 -> LATE(BITBIGSFRllllh[1]), LATD(BITBIGSFRllllh[1]), LATC(BITBIGSFRllllh[1]), LATB(BITBIGSFRllllh[1]), 
		 -> LATA(BITBIGSFRlllll[1]), 

    tris_registers	PTR volatile unsigned char [5] size(2) Largest target is 1
		 -> TRISD(ABS[1]), TRISC(ABS[1]), TRISB(ABS[1]), TRISE(ABS[1]), 
		 -> TRISA(BITBIGSFRlllll[1]), 

    CCP_Compare_Mode_Config@_ccp_obj.CCP2_InterruptHandler	PTR FTN()void  size(2) Largest target is 0

    CCP_Compare_Mode_Config@_ccp_obj.CCP1_InterruptHandler	PTR FTN()void  size(2) Largest target is 0

    CCP_Capture_Mode_Config@_ccp_obj.CCP2_InterruptHandler	PTR FTN()void  size(2) Largest target is 0

    CCP_Capture_Mode_Config@_ccp_obj.CCP1_InterruptHandler	PTR FTN()void  size(2) Largest target is 0

    CCP_Mode_Timer_Select@_ccp_obj.CCP2_InterruptHandler	PTR FTN()void  size(2) Largest target is 0

    CCP_Mode_Timer_Select@_ccp_obj.CCP1_InterruptHandler	PTR FTN()void  size(2) Largest target is 0

    CCP_Interrupt_Config@_ccp_obj.CCP2_InterruptHandler	PTR FTN()void  size(2) Largest target is 0

    CCP_Interrupt_Config@_ccp_obj.CCP1_InterruptHandler	PTR FTN()void  size(2) Largest target is 0

    CCP_PWM_Mode_Config@_ccp_obj.CCP2_InterruptHandler	PTR FTN()void  size(2) Largest target is 0

    CCP_PWM_Mode_Config@_ccp_obj.CCP1_InterruptHandler	PTR FTN()void  size(2) Largest target is 0

    CCP2_InterruptHandler	PTR FTN()void  size(2) Largest target is 1
		 -> Absolute function(), 

    CCP1_InterruptHandler	PTR FTN()void  size(2) Largest target is 1
		 -> Absolute function(), 

    CCP_PWM_Stop@_ccp_obj.CCP2_InterruptHandler	PTR FTN()void  size(2) Largest target is 0

    CCP_PWM_Stop@_ccp_obj.CCP1_InterruptHandler	PTR FTN()void  size(2) Largest target is 0

    CCP_PWM_Start@_ccp_obj.CCP2_InterruptHandler	PTR FTN()void  size(2) Largest target is 0

    CCP_PWM_Start@_ccp_obj.CCP1_InterruptHandler	PTR FTN()void  size(2) Largest target is 0

    CCP_PWM_Set_Duty@_ccp_obj.CCP2_InterruptHandler	PTR FTN()void  size(2) Largest target is 0

    CCP_PWM_Set_Duty@_ccp_obj.CCP1_InterruptHandler	PTR FTN()void  size(2) Largest target is 0

    CCP_DeInit@_ccp_obj.CCP2_InterruptHandler	PTR FTN()void  size(2) Largest target is 0

    CCP_DeInit@_ccp_obj.CCP1_InterruptHandler	PTR FTN()void  size(2) Largest target is 0

    S1278$CCP2_InterruptHandler	PTR FTN()void  size(2) Largest target is 0

    CCP_Init@_ccp_obj.CCP2_InterruptHandler	PTR FTN()void  size(2) Largest target is 0

    S1278$CCP1_InterruptHandler	PTR FTN()void  size(2) Largest target is 0

    CCP_Init@_ccp_obj.CCP1_InterruptHandler	PTR FTN()void  size(2) Largest target is 0

    configure_voltage_reference@_adc.ADC_InterruptHandler	PTR FTN()void  size(2) Largest target is 0

    select_result_format@_adc.ADC_InterruptHandler	PTR FTN()void  size(2) Largest target is 0

    ADC_GetConversionResult@_adc.ADC_InterruptHandler	PTR FTN()void  size(2) Largest target is 0

    ADC_InterruptHandler	PTR FTN()void  size(2) Largest target is 1
		 -> Absolute function(), 

    S860$ADC_InterruptHandler	PTR FTN()void  size(2) Largest target is 0

    ADC_Init@_adc.ADC_InterruptHandler	PTR FTN()void  size(2) Largest target is 0

    sp__memset	PTR void  size(2) Largest target is 2
		 -> display_num_on_lcd@num_str(COMRAM[2]), 


Critical Paths under _main in COMRAM

    _main->_MSSP_I2C_Init
    _MSSP_I2C_Init->_I2C_Master_Mode_Clock_Configurations
    _I2C_Master_Mode_Clock_Configurations->___fltol
    ___fltol->___fladd
    ___fldiv->___xxtofl
    ___fladd->___fldiv

Critical Paths under _InterruptManager in COMRAM

    _InterruptManager->_RB4_ISR
    _InterruptManager->_RB5_ISR
    _InterruptManager->_RB6_ISR
    _InterruptManager->_RB7_ISR

Critical Paths under _main in BANK0

    None.

Critical Paths under _InterruptManager in BANK0

    None.

Critical Paths under _main in BANK1

    None.

Critical Paths under _InterruptManager in BANK1

    None.

Critical Paths under _main in BANK2

    None.

Critical Paths under _InterruptManager in BANK2

    None.

Critical Paths under _main in BANK3

    None.

Critical Paths under _InterruptManager in BANK3

    None.

Critical Paths under _main in BANK4

    None.

Critical Paths under _InterruptManager in BANK4

    None.

Critical Paths under _main in BANK5

    None.

Critical Paths under _InterruptManager in BANK5

    None.

Critical Paths under _main in BANK6

    None.

Critical Paths under _InterruptManager in BANK6

    None.

Critical Paths under _main in BANK7

    None.

Critical Paths under _InterruptManager in BANK7

    None.

Critical Paths under _main in BANK8

    None.

Critical Paths under _InterruptManager in BANK8

    None.

Critical Paths under _main in BANK9

    None.

Critical Paths under _InterruptManager in BANK9

    None.

Critical Paths under _main in BANK10

    None.

Critical Paths under _InterruptManager in BANK10

    None.

Critical Paths under _main in BANK11

    None.

Critical Paths under _InterruptManager in BANK11

    None.

Critical Paths under _main in BANK12

    None.

Critical Paths under _InterruptManager in BANK12

    None.

Critical Paths under _main in BANK13

    None.

Critical Paths under _InterruptManager in BANK13

    None.

Critical Paths under _main in BANK14

    None.

Critical Paths under _InterruptManager in BANK14

    None.

Critical Paths under _main in BANK15

    None.

Critical Paths under _InterruptManager in BANK15

    None.

Call Graph Tables:

 ---------------------------------------------------------------------------------
 (Depth) Function   	        Calls       Base Space   Used Autos Params    Refs
 ---------------------------------------------------------------------------------
 (0) _main                                                 3     3      0    9644
                                             72 COMRAM     2     2      0
                      _MSSP_I2C_Init
         _MSSP_I2C_Master_Send_Start
          _MSSP_I2C_Master_Send_Stop
              _application_intialize
 ---------------------------------------------------------------------------------
 (1) _application_intialize                                1     1      0       2
                _ecu_layer_intialize
 ---------------------------------------------------------------------------------
 (2) _ecu_layer_intialize                                  1     1      0       1
 ---------------------------------------------------------------------------------
 (1) _MSSP_I2C_Master_Send_Stop                            3     1      2     124
                                              1 COMRAM     3     1      2
 ---------------------------------------------------------------------------------
 (1) _MSSP_I2C_Master_Send_Start                           3     1      2     124
                                              1 COMRAM     3     1      2
 ---------------------------------------------------------------------------------
 (1) _MSSP_I2C_Init                                        3     1      2    9391
                                             70 COMRAM     2     0      2
_I2C_Master_Mode_Clock_Configuration
      _I2C_Slave_Mode_Configurations
  _MSSP_I2C_Interrupt_Configurations
             _MSSP_I2C_Mode_GPIO_CFG
 ---------------------------------------------------------------------------------
 (2) _MSSP_I2C_Mode_GPIO_CFG                               0     0      0       0
 ---------------------------------------------------------------------------------
 (2) _MSSP_I2C_Interrupt_Configurations                    2     0      2     142
                                              1 COMRAM     2     0      2
 ---------------------------------------------------------------------------------
 (2) _I2C_Slave_Mode_Configurations                        3     1      2      98
                                              1 COMRAM     3     1      2
 ---------------------------------------------------------------------------------
 (2) _I2C_Master_Mode_Clock_Configurations                 4     2      2    8780
                                             66 COMRAM     4     2      2
                            ___fladd
                            ___fldiv
                            ___fltol
                           ___xxtofl
 ---------------------------------------------------------------------------------
 (3) ___xxtofl                                            14    10      4    1207
                                              1 COMRAM    14    10      4
 ---------------------------------------------------------------------------------
 (3) ___fltol                                             10     6      4     582
                                             56 COMRAM    10     6      4
                            ___fladd (ARG)
                            ___fldiv (ARG)
                           ___xxtofl (ARG)
 ---------------------------------------------------------------------------------
 (3) ___fldiv                                             25    17      8    3473
                                             15 COMRAM    25    17      8
                           ___xxtofl (ARG)
 ---------------------------------------------------------------------------------
 (3) ___fladd                                             16     8      8    3398
                                             40 COMRAM    16     8      8
                            ___fldiv (ARG)
                           ___xxtofl (ARG)
 ---------------------------------------------------------------------------------
 Estimated maximum stack depth 3
 ---------------------------------------------------------------------------------
 (Depth) Function   	        Calls       Base Space   Used Autos Params    Refs
 ---------------------------------------------------------------------------------
 (4) _InterruptManager                                     0     0      0     162
                            _ADC_ISR
                           _CCP1_ISR
                           _CCP2_ISR
                           _INT0_ISR
                           _INT1_ISR
                           _INT2_ISR
                       _MSSP_SPI_ISR
                            _RB4_ISR
                            _RB5_ISR
                            _RB6_ISR
                            _RB7_ISR
                           _TMR0_ISR
                           _TMR1_ISR
                           _TMR2_ISR
                           _TMR3_ISR
 ---------------------------------------------------------------------------------
 (5) _TMR3_ISR                                             0     0      0       0
 ---------------------------------------------------------------------------------
 (5) _TMR2_ISR                                             0     0      0       0
 ---------------------------------------------------------------------------------
 (5) _TMR1_ISR                                             0     0      0       0
 ---------------------------------------------------------------------------------
 (5) _TMR0_ISR                                             0     0      0       0
 ---------------------------------------------------------------------------------
 (5) _RB7_ISR                                              1     1      0      44
                                              0 COMRAM     1     1      0
 ---------------------------------------------------------------------------------
 (5) _RB6_ISR                                              1     1      0      44
                                              0 COMRAM     1     1      0
 ---------------------------------------------------------------------------------
 (5) _RB5_ISR                                              1     1      0      44
                                              0 COMRAM     1     1      0
 ---------------------------------------------------------------------------------
 (5) _RB4_ISR                                              1     1      0      30
                                              0 COMRAM     1     1      0
 ---------------------------------------------------------------------------------
 (5) _MSSP_SPI_ISR                                         0     0      0       0
 ---------------------------------------------------------------------------------
 (5) _INT2_ISR                                             0     0      0       0
 ---------------------------------------------------------------------------------
 (5) _INT1_ISR                                             0     0      0       0
 ---------------------------------------------------------------------------------
 (5) _INT0_ISR                                             0     0      0       0
 ---------------------------------------------------------------------------------
 (5) _CCP2_ISR                                             0     0      0       0
 ---------------------------------------------------------------------------------
 (5) _CCP1_ISR                                             0     0      0       0
 ---------------------------------------------------------------------------------
 (5) _ADC_ISR                                              0     0      0       0
 ---------------------------------------------------------------------------------
 Estimated maximum stack depth 5
 ---------------------------------------------------------------------------------

 Call Graph Graphs:

 _main (ROOT)
   _MSSP_I2C_Init
     _I2C_Master_Mode_Clock_Configurations
       ___fladd
         ___fldiv (ARG)
           ___xxtofl (ARG)
         ___xxtofl (ARG)
       ___fldiv
       ___fltol
         ___fladd (ARG)
         ___fldiv (ARG)
         ___xxtofl (ARG)
       ___xxtofl
     _I2C_Slave_Mode_Configurations
     _MSSP_I2C_Interrupt_Configurations
     _MSSP_I2C_Mode_GPIO_CFG
   _MSSP_I2C_Master_Send_Start
   _MSSP_I2C_Master_Send_Stop
   _application_intialize
     _ecu_layer_intialize

 _InterruptManager (ROOT)
   _ADC_ISR
   _CCP1_ISR
   _CCP2_ISR
   _INT0_ISR
   _INT1_ISR
   _INT2_ISR
   _MSSP_SPI_ISR
   _RB4_ISR
   _RB5_ISR
   _RB6_ISR
   _RB7_ISR
   _TMR0_ISR
   _TMR1_ISR
   _TMR2_ISR
   _TMR3_ISR

 Address spaces:
Name               Size   Autos  Total    Cost      Usage
BIGRAM             F7F      0       0      48        0.0%
EEDATA             400      0       0       0        0.0%
BITBANK14          100      0       0      32        0.0%
BANK14             100      0       0      33        0.0%
BITBANK13          100      0       0      30        0.0%
BANK13             100      0       0      31        0.0%
BITBANK12          100      0       0      28        0.0%
BANK12             100      0       0      29        0.0%
BITBANK11          100      0       0      26        0.0%
BANK11             100      0       0      27        0.0%
BITBANK10          100      0       0      24        0.0%
BANK10             100      0       0      25        0.0%
BITBANK9           100      0       0      22        0.0%
BANK9              100      0       0      23        0.0%
BITBANK8           100      0       0      20        0.0%
BANK8              100      0       0      21        0.0%
BITBANK7           100      0       0      18        0.0%
BANK7              100      0       0      19        0.0%
BITBANK6           100      0       0      16        0.0%
BANK6              100      0       0      17        0.0%
BITBANK5           100      0       0      14        0.0%
BANK5              100      0       0      15        0.0%
BITBANK4           100      0       0      12        0.0%
BANK4              100      0       0      13        0.0%
BITBANK3           100      0       0      10        0.0%
BANK3              100      0       0      11        0.0%
BITBANK2           100      0       0       8        0.0%
BANK2              100      0       0       9        0.0%
BITBANK1           100      0       0       6        0.0%
BANK1              100      0      4A       7       28.9%
BITBANK15           80      0       0      34        0.0%
BANK15              80      0       0      35        0.0%
BITBANK0            80      0       0       4        0.0%
BANK0               80      0      7D       5       97.7%
BITCOMRAM           7E      0       0       0        0.0%
COMRAM              7E     4A      7D       1       99.2%
BITBIGSFRhlhhlh     18      0       0      37        0.0%
BITBIGSFRhh          D      0       0      36        0.0%
BITBIGSFRlllhh       6      0       0      44        0.0%
BITBIGSFRhlhhll      5      0       0      38        0.0%
BITBIGSFRllhllh      4      0       0      41        0.0%
BITBIGSFRllllh       4      0       0      45        0.0%
BITBIGSFRllhllh      4      0       0      42        0.0%
BITBIGSFRlllll       4      0       0      46        0.0%
BITBIGSFRllhllh      1      0       0      40        0.0%
BITBIGSFRllhlh       1      0       0      39        0.0%
BITBIGSFRllhlll      1      0       0      43        0.0%
BIGSFR               0      0       0     200        0.0%
BITSFR               0      0       0     200        0.0%
SFR                  0      0       0     200        0.0%
STACK                0      0       0       2        0.0%
NULL                 0      0       0       0        0.0%
ABS                  0      0     144      47        0.0%
DATA                 0      0     144       3        0.0%
CODE                 0      0       0       0        0.0%


Microchip Technology PIC18 Macro Assembler V2.40 build 20220703182018 
Symbol Table                                                                                   Sun Nov 05 13:02:48 2023

                          ??_InterruptManager 0002                                  ___fldiv@aexp 0028  
                                ___fldiv@bexp 0027                      SPI_Master_Gpio_Cfg@F3533 0073  
                    SPI_Master_Gpio_Cfg@F3535 0072                      SPI_Master_Gpio_Cfg@F3537 0071  
                                ___fldiv@sign 0020                                   _SSPSTATbits 000FC7  
                                         l436 2418                                           _PR2 000FCB  
                   _RB5_InterruptHandler_HIGH 00FB                               __end_of_ADC_ISR 2418  
                         led_initialize@F3474 006C                                           wreg 000FE8  
                       relay_initialize@F3470 0068                      ??_MSSP_I2C_Mode_GPIO_CFG 0002  
                             __end_of_RB4_ISR 23B2                               __end_of_RB5_ISR 2398  
                             __end_of_RB6_ISR 237E                               __end_of_RB7_ISR 2364  
                                ___fltol@exp1 0042                                          l2404 1204  
                                        l2421 131E                                          l2413 14D4  
                                        l2405 11F2                                          l2173 2044  
                                        l2430 13EE                                          l2406 11B8  
                                        l2431 13DC                                          l1800 22C4  
                                        l1801 22E8                                          l1802 22C6  
                                        l2531 1C9C                                          l2460 1AA4  
                                        l1804 22D4                                          l1717 23F4  
                                        l2534 1DF8                                          l2471 1B62  
                                        l2463 1A68                                          l1807 22EA  
                                        l6000 1494                                          l2472 1B50  
                                        l2545 1D90                                          l6010 14B4  
                                        l6002 1498                                          l2458 1C44  
                                        l2538 1D34                                          l1762 1E92  
                                        l6012 14C2                                          l6004 14A6  
                                        l6100 1AA2                                          l6020 18B8  
                                        l1756 1E10                                          l2469 1AEA  
                                        l6014 14C4                                          l6006 14AC  
                                        l6110 1AE8                                          l6102 1AB4  
                                        l6030 18F8                                          l6022 18C6  
                                        l1870 2348                                          l1774 1F3E  
                                        l1782 2306                                          l1783 232A  
                                        l6008 14AE                                          l6120 1B48  
                                        l6104 1ACA                                          l6112 1AFA  
                                        l6040 191E                                          l6032 18FA  
                                        l6024 18C8                                          l6200 1C48  
                                        l1864 23FA                                          l1784 2308  
                                        l1873 22A8                                          l6130 1BB6  
                                        l6114 1B08                                          l6106 1AD0  
                                        l6050 195E                                          l6042 192C  
                                        l6026 18D8                                          l6034 1902  
                                        l6018 18AC                                          l6202 1C58  
                                        l1786 2316                                          l1867 20E2  
                                        l6140 1C20                                          l6124 1B72  
                                        l6132 1BBA                                          l6116 1B0C  
                                        l6108 1ADA                                          l6060 199E  
                                        l6052 1960                                          l6044 192E  
                                        l6036 1912                                          l6028 18E8  
                                        l6220 1D1E                                          l6212 1CD6  
                                        l6204 1C66                                          l1789 232C  
                                        l6142 1C24                                          l6134 1BD4  
                                        l6126 1B7E                                          l6118 1B1A  
                                        l6070 19CE                                          l6062 19A6  
                                        l6046 193E                                          l6054 1968  
                                        l6038 1918                                          l6230 1D9E  
                                        l6222 1D2A                                          l6214 1CDE  
                                        l6206 1CAC                                          l6144 1C32  
                                        l6136 1BEA                                          l6128 1B8C  
                                        l6080 1A0C                                          l6072 19CE  
                                        l6064 19AA                                          l6056 1978  
                                        l6048 194E                                          l6240 1DE6  
                                        l6232 1DA0                                          l6224 1D66  
                                        l6216 1CEA                                          l6208 1CC2  
                                        l6146 1C38                                          l6138 1C04  
                                        l6090 1A58                                          l6082 1A1C  
                                        l6058 198E                                          l6170 1FAA  
                                        l6162 1F6A                                          l6242 1DE8  
                                        l6234 1DA4                                          l6226 1D72  
                                        l6218 1D1C                                          l6148 1C3A  
                                        l6092 1A66                                          l6084 1A2C  
                                        l6076 19E2                                          l6068 19BE  
                                        l6180 1FDA                                          l6172 1FB8  
                                        l6164 1F94                                          l6156 1F40  
                                        l6236 1DC8                                          l6228 1D80  
                                        l6094 1A72                                          l6086 1A34  
                                        l6078 19FC                                          l6190 2004  
                                        l6182 1FE4                                          l6166 1F96  
                                        l6158 1F56                                          l6238 1DD8  
                                        l6350 23F6                                          l6342 2418  
                                        l8030 2176                                          l6096 1A90  
                                        l6088 1A44                                          l6192 2014  
                                        l6168 1FA6                                          l6344 2046  
                                        l6352 2260                                          l8032 2182  
                                        l8024 2166                                          l6098 1A92  
                                        l6194 2024                                          l6178 1FD0  
                                        l6346 2060                                          l6354 2268  
                                        l6610 1DFA                                          l8034 2198  
                                        l8026 2166                                          l5900 11A0  
                                        l5820 1030                                          l6196 2034  
                                        l6188 1FF8                                          l6348 232E  
                                        l6356 22A4                                          l6620 1E3C  
                                        l6612 1DFA                                          l8036 21A4  
                                        l8028 216A                                          l5910 11E4  
                                        l5902 11B0                                          l5830 1064  
                                        l5822 1032                                          l6358 22A6  
                                        l6630 1E98                                          l6622 1E56  
                                        l6614 1E0C                                          l6606 23F0  
                                        l5912 11E6                                          l5904 11C6  
                                        l5840 1096                                          l5824 1042  
                                        l5832 106C                                          l5816 1016  
                                        l6640 1ED8                                          l6632 1EA8  
                                        l6624 1E70                                          l6616 1E12  
                                        l6608 23F0                                          l5930 126E  
                                        l5922 1236                                          l5914 11F0  
                                        l5906 11D2                                          l5850 10CC  
                                        l5842 109C                                          l5834 107C  
                                        l5826 1052                                          l5818 1022  
                                        l6650 1F2E                                          l6642 1EF2  
                                        l6626 1E76                                          l6634 1EB4  
                                        l6618 1E2C                                          l5932 1272  
                                        l5924 1246                                          l5916 1212  
                                        l5940 1292                                          l5908 11D6  
                                        l5860 1108                                          l5852 10DC  
                                        l5844 10AA                                          l5836 1082  
                                        l5828 1062                                          l6652 1F30  
                                        l6644 1EF4                                          l6636 1EB8  
                                        l6628 1E90                                          l6660 22EC  
                                        l5942 12B8                                          l5950 130E  
                                        l5934 1280                                          l5926 1254  
                                        l5918 1222                                          l5870 1126  
                                        l5862 1116                                          l5854 10DE  
                                        l5846 10AC                                          l5838 1094  
                                        l6654 1F3C                                          l6646 1F0E  
                                        l6638 1ED2                                          l6662 22EC  
                                        l5960 1362                                          l5952 1334  
                                        l5944 12EC                                          l5936 1282  
                                        l5928 1262                                          l5880 113A  
                                        l5872 112A                                          l5864 111A  
                                        l5848 10BC                                          l5856 10E6  
                                        l6656 1F3E                                          l6648 1F14  
                                        l6664 22FE                                          l6672 22AA  
                                        l5970 138C                                          l5962 1370  
                                        l5954 1344                                          l5946 12EE  
                                        l5938 128C                                          l5890 114E  
                                        l5882 113E                                          l5874 112E  
                                        l5866 111E                                          l5858 10F6  
                                        l6666 2326                                          l6674 22AA  
                                        l5980 13BE                                          l5972 139C  
                                        l5964 1372                                          l5948 12FE  
                                        l5892 1152                                          l5884 1142  
                                        l5876 1132                                          l5868 1122  
                                        l6676 22BC                                          l5990 1418  
                                        l5982 13D4                                          l5966 1380  
                                        l5958 1358                                          l5974 139E  
                                        l5886 1146                                          l5878 1136  
                                        l5894 1156                                          l6678 22E4  
                                        l5992 1452                                          l5968 1388  
                                        l5976 13AC                                          l5896 115A  
                                        l5888 114A                                          l5986 13FE  
                                        l5994 1454                                          l5978 13B0  
                                        l5898 1184                                          l5996 1464  
                                        l5988 140A                                          l5998 1474  
                                        STR_1 1011                                          _LATA 000F89  
                                        _LATB 000F8A                                          _LATC 000F8B  
                                        _LATD 000F8C                                          _LATE 000F8D  
                                        u5000 1CC2                                          u5001 1CBE  
                                        u5010 1D18                                          u5011 1D14  
                                        u4300 1042                                          u5020 1D62  
                                        u4301 103E                                          u5021 1D5E  
                                        u4310 1052                                          u5030 1D80  
                                        u4311 104E                                          u5031 1D7C  
                                        u4400 119E                                          u4320 1094  
                                        u5040 1D90                                          u4321 1090  
                                        u5041 1D8C                                          u4410 11C6  
                                        u4330 10AA                                          u5050 1D9E  
                                        u4411 11C2                                          u4331 10A6  
                                        u5051 1D9A                                          u4500 12FE  
                                        u4420 11E4                                          u4340 10BC  
                                        u5060 1DD8                                          u4501 12FA  
                                        u4421 11E0                                          u4341 10B8  
                                        u5061 1DD4                                          u4510 1334  
                                        u4430 1204                                          u4350 10CC  
                                        u5070 1DE6                                          u4511 1330  
                                        u4431 1200                                          u4351 10C8  
                                        u5071 1DE2                                          u4600 13FE  
                                        u4520 1344                                          u4440 1212  
                                        u4360 1108                                          u5400 1E2C  
                                        u4601 13FA                                          u4521 1340  
                                        u4441 120E                                          u4361 1104  
                                        u5401 1E28                                          u4610 1418  
                                        u4530 1370                                          u4450 1222  
                                        u4370 1116                                          u4290 1030  
                                        u5410 1E56                                          u4611 1414  
                                        u4531 136C                                          u4451 121E  
                                        u4371 1112                                          u4291 102C  
                                        u5411 1E52                                          u4620 1452  
                                        u4540 1380                                          u4460 1254  
                                        u4380 1184                                          u4700 18E8  
                                        u5420 1E70                                          u5500 2326  
                                        u4621 144E                                          u4541 137C  
                                        u4461 1250                                          u4381 1180  
                                        u4701 18E4                                          u5421 1E6C  
                                        u5501 2322                                          u4630 1464  
                                        u4550 139C                                          u4470 1262  
                                        u4390 119C                                          u4710 192C  
                                        u5430 1E90                                          u5510 22BC  
                                        u4631 1460                                          u4551 1398  
                                        u4471 125E                                          u4391 1196  
                                        u4711 1928                                          u5431 1E8C  
                                        u5511 22B8                                          u4640 1474  
                                        u4560 13AC                                          u4480 1280  
                                        u4800 1ACA                                          u4720 193E  
                                        u5440 1ED2                                          u5520 22D4  
                                        u4641 1470                                          u4561 13A8  
                                        u4481 127C                                          u4801 1AC6  
                                        u4721 193A                                          u5441 1ECE  
                                        u5521 22D0                                          u4650 1494  
                                        u4570 13BE                                          u4490 12B8  
                                        u4810 1AE8                                          u4730 194E  
                                        u5450 1EF2                                          u5530 22E4  
                                        u4651 1490                                          u4571 13BA  
                                        u4491 12B4                                          u4811 1AE4  
                                        u4731 194A                                          u5451 1EEE  
                                        u5531 22E0                                          u4660 14A6  
                                        u4580 13D4                                          u4900 1C32  
                                        u4820 1B08                                          u4740 198E  
                                        u5460 1F0E                                          u4661 14A2  
                                        u4581 13D0                                          u4901 1C2E  
                                        u4821 1B04                                          u4741 198A  
                                        u5461 1F0A                                          u4670 14C2  
                                        u4590 13EA                                          u4830 1B1A  
                                        u4750 19CE                                          u4910 1F56  
                                        u5470 1F2E                                          u5390 1E0C  
                                        u4671 14BE                                          u4591 13E6  
                                        u4831 1B16                                          u4751 19CA  
                                        u4911 1F52                                          u5471 1F2A  
                                        u5391 1E08                                          u4840 1B48  
                                        u4760 1A44                                          u4680 18C6  
                                        u4920 1F8A                                          u5480 22FE  
                                        u4841 1B44                                          u4761 1A40  
                                        u4681 18C2                                          u5481 22FA  
                                        u4850 1B5E                                          u4770 1A66  
                                        u4690 18D8                                          u4930 1FB8  
                                        u5490 2316                                          u4851 1B5A  
                                        u4771 1A62                                          u4691 18D4  
                                        u4931 1FB4                                          u5491 2312  
                                        u4860 1B72                                          u4780 1A90  
                                        u4940 1FCC                                          u4861 1B6E  
                                        u4781 1A8C                                          u4941 1FC8  
                                        u4925 1F80                                          u4870 1B8C  
                                        u4790 1AB4                                          u4950 1FF4  
                                        u4871 1B88                                          u4791 1AB0  
                                        u4951 1FF0                                          u4880 1BD4  
                                        u4960 2014                                          u4881 1BD0  
                                        u4961 2010                                          u4890 1C04  
                                        u4970 2024                                          u4891 1C00  
                                        u4971 2020                                          u7507 21AE  
                                        u4980 1C58                                          u4981 1C54  
                                        u4990 1C66                                          u4991 1C62  
                                        u7497 218C                                          _TMR2 000FCC  
                     ??_application_intialize 0002                                          _ball 0112  
                    _RB4_InterruptHandler_LOW 0051                                          _btn1 00C1  
                                        _led1 007C                                          _led2 007B  
                                        _led3 007A                                          _led4 0079  
                                        _goal 011A                                          _seg1 00BC  
                                        _main 2166                              __end_of_CCP1_ISR 2414  
                            __end_of_CCP2_ISR 2410                      _RB7_InterruptHandler_LOW 00F1  
                                        fsr2h 000FDA                                          indf2 000FDF  
                                        fsr1l 000FE1                                          fsr2l 000FD9  
                                        btemp 007E                                          _zizo 013A  
                                        start 000E                               ___fldiv@new_exp 0021  
                                ___param_bank 000000                              __end_of_INT0_ISR 240C  
                            __end_of_INT1_ISR 2408                              __end_of_INT2_ISR 2404  
                               ___fltol@sign1 0041                               __end_of___fladd 14D6  
                                       ?_main 0001                               __end_of___fldiv 1C46  
                                       _EEADR 000FA9                               __end_of___fltol 2046  
                 ??_MSSP_I2C_Master_Send_Stop 0004                                         i2l562 2416  
                                       i2l670 2412                                         i2l675 240E  
                                       i2l932 240A                                         i2l942 2402  
                                       i2l937 2406                                         i2l953 23B0  
                                       i2l964 2396                                         i2l975 237C  
                                       i2l986 2362                                         _RCREG 000FAE  
                         relay_turn_off@F3480 0066                                         _TMR0H 000FD7  
                                       _TMR1H 000FCF                                         _TMR0L 000FD6  
                                       _TMR1L 000FCE                                         _TMR3H 000FB3  
                                       _TMR3L 000FB2                                         _SPBRG 000FAF  
                                       _PORTA 000F80                                         _PORTB 000F81  
                                       _PORTC 000F82                                         _PORTD 000F83  
                                       _PORTE 000F84                                         _TRISA 000F92  
                                       _TRISB 000F93                                         _TRISC 000F94  
                                       _TRISD 000F95                                         _TRISE 000F96  
                                       _TXREG 000FAD                              __end_of_TMR0_ISR 23E8  
                            __end_of_TMR1_ISR 23DC                              __end_of_TMR2_ISR 23F0  
                            __end_of_TMR3_ISR 23D0                                         _lcd_1 00B6  
                                       _lcd_2 0100                                         _messi 0122  
                                       tablat 000FF5                                         ttemp5 007F  
                                       ttemp6 0082                                         ttemp7 0086  
                                       status 000FD8                                         wtemp8 007F  
                             __initialization 20E4                                  __end_of_main 21C2  
                                   ??_ADC_ISR 0001                                 _lat_registers 008A  
                                      ??_main 0049                                 __activetblptr 000003  
                       _TMR3_InterruptHandler 00E7                              led_turn_on@F3479 006B  
                                   ??_RB4_ISR 0001                                     ??_RB5_ISR 0001  
                                   ??_RB6_ISR 0001                                     ??_RB7_ISR 0001  
                  _EUSART_OverrunErrorHandler 00DF                                        _ADRESH 000FC4  
                                      _EEADRH 000FAA                                        _ADRESL 000FC3  
                                      _EEDATA 000FA8                                        _CCPR1H 000FBF  
                                      _CCPR1L 000FBE                                        _CCPR2L 000FBB  
                                      _EECON2 000FA7                  ??_MSSP_I2C_Master_Send_Start 0004  
                                      i2l1200 18A8                                        i2l1161 159C  
                                      i2l1153 14F8                                        i2l1315 23FE  
                                      i2l1171 16F0                                        i2l1163 15E0  
                                      i2l1155 1518                                        i2l1181 17C8  
                                      i2l1173 1734                                        i2l1165 1624  
                                      i2l1157 1538                                        i2l1191 1838  
                                      i2l1183 17E8                                        i2l1175 1778  
                                      i2l1167 1668                                        i2l1159 1558  
                                      i2l1521 23CE                                        i2l1193 1848  
                                      i2l1185 1808                                        i2l1177 1788  
                                      i2l1169 16AC                                        i2l1426 23DA  
                                      i2l1195 1868                                        i2l1187 1818  
                                      i2l1179 17A8                                        i2l1357 23E6  
                                      i2l1197 1888                                        i2l1189 1828  
                                      i2l1477 23EE                                        i2l3334 2414  
                                      i2l3344 240C                                        i2l3338 2410  
                                      i2l3362 2408                                        i2l3380 239A  
                                      i2l3374 2400                                        i2l3382 239C  
                                      i2l3368 2404                                        i2l3388 23B0  
                                      i2l6600 23FC                                        i2l6530 2380  
                                      i2l6532 2382                                        i2l6552 237C  
                                      i2l6544 2366                                        i2l6560 234E  
                                      i2l7600 165E                                        i2l6538 2396  
                                      i2l6546 2368                                        i2l7610 16A2  
                                      i2l7602 1662                                        i2l6572 23DC  
                                      i2l6580 23D0                                        i2l7620 16E6  
                                      i2l7612 16A6                                        i2l7604 1676  
                                      i2l6566 2362                                        i2l6558 234C  
                                      i2l6574 23DE                                        i2l6582 23D2  
                                      i2l7630 172A                                        i2l7622 16EA  
                                      i2l7614 16BA                                        i2l7606 1684  
                                      i2l7550 14F4                                        i2l6576 23E2  
                                      i2l6584 23D6                                        i2l6592 23C4  
                                      i2l7640 176E                                        i2l7632 172E  
                                      i2l7624 16FE                                        i2l7616 16C8  
                                      i2l7608 1692                                        i2l7560 1546  
                                      i2l7552 1506                                        i2l6594 23C6  
                                      i2l7650 17A4                                        i2l7642 1772  
                                      i2l7634 1742                                        i2l7626 170C  
                                      i2l7618 16D6                                        i2l7570 1592  
                                      i2l7562 1554                                        i2l7554 1514  
                                      i2l7546 14D8                                        i2l6588 23E8  
                                      i2l6596 23CA                                        i2l7660 17F6  
                                      i2l7652 17B6                                        i2l7644 1786  
                                      i2l7636 1750                                        i2l7628 171A  
                                      i2l7580 15D6                                        i2l7572 1596  
                                      i2l7564 1566                                        i2l7556 1526  
                                      i2l7548 14E6                                        i2l7662 1804  
                                      i2l7654 17C4                                        i2l7638 175E  
                                      i2l7590 161A                                        i2l7582 15DA  
                                      i2l7574 15AA                                        i2l7566 1574  
                                      i2l7558 1534                                        i2l7680 1856  
                                      i2l7672 1836                                        i2l7664 1816  
                                      i2l7656 17D6                                        i2l7648 1796  
                                      i2l7592 161E                                        i2l7584 15EE  
                                      i2l7576 15B8                                        i2l7568 1582  
                                      i2l7690 18A4                                        i2l7682 1864  
                                      i2l7658 17E4                                        i2l7594 1632  
                                      i2l7586 15FC                                        i2l7578 15C6  
                                      i2l7684 1876                                        i2l7676 1846  
                                      i2l7668 1826                                        i2l7596 1640  
                                      i2l7588 160A                                        i2l7686 1884  
                                      i2l7598 164E                                        i2l7688 1896  
                                      _SPBRGH 000FB0                     _MSSP_I2C_Master_Send_Stop 22AA  
                                      _SSPADD 000FC8                                        _SSPBUF 000FC9  
                            __end_of___xxtofl 1DFA                         __end_of_MSSP_I2C_Init 1F40  
__end_of_I2C_Master_Mode_Clock_Configurations 20E4        ??_I2C_Master_Mode_Clock_Configurations 0045  
       ?_I2C_Master_Mode_Clock_Configurations 0043          _I2C_Master_Mode_Clock_Configurations 2046  
                                   ??___fladd 0031                                     ??___fldiv 0018  
                                   ??___fltol 003D                                        __relay 0078  
                                      _killer 012A                                        clear_0 214A  
                                      clear_1 2156                                        isa$std 000001  
 _I2C_Report_Receive_Overflow_InterruptHandle 00D9                                     ?_CCP1_ISR 0001  
                                __pdataCOMRAM 006D                                     ?_CCP2_ISR 0001  
                                __mediumconst 0000                                        tblptrh 000FF7  
                                      tblptrl 000FF6                                        tblptru 000FF8  
                                ___xxtofl@arg 000C                                  ___xxtofl@exp 000B  
                                ___xxtofl@val 0002                                    __accesstop 0080  
                     __end_of__initialization 215C                                     ?_INT0_ISR 0001  
                                   ?_INT1_ISR 0001                                     ?_INT2_ISR 0001  
                               ___rparam_used 000001                                    ___fltol@f1 0039  
                           RB5_ISR@RB5_Source 0001                                __pcstackCOMRAM 0001  
                      _MSSP_I2C_Mode_GPIO_CFG 23F6                    _I2C_DefaultInterruptHandle 00DB  
                                __pidataBANK0 21C2                                  __pidataBANK1 2215  
                                   ?_TMR0_ISR 0001                                     ?_TMR1_ISR 0001  
                                   ?_TMR2_ISR 0001                                     ?_TMR3_ISR 0001  
               MSSP_I2C_Master_Send_Start@ret 0004                                    ??_CCP1_ISR 0001  
                                  ??_CCP2_ISR 0001                                    _dc_motor_1 00C4  
                                  __pbssBANK0 00D3                         _INT0_InterruptHandler 0059  
                                  ??_INT0_ISR 0001                                    ??_INT1_ISR 0001  
                                  ??_INT2_ISR 0001                 __end_of_application_intialize 23F6  
                                  ??_TMR0_ISR 0001                                    ??_TMR1_ISR 0001  
                                  ??_TMR2_ISR 0001                                    ??_TMR3_ISR 0001  
                           led_turn_off@F3484 006A                                       _ADC_ISR 2414  
                           RB7_ISR@RB7_Source 0001                                       _RB4_ISR 2398  
                                     _RB5_ISR 237E                                       _RB6_ISR 2364  
                                     _RB7_ISR 234A                                     ?___xxtofl 0002  
                   _RB6_InterruptHandler_HIGH 00F7                          led_turn_toggle@F3489 0069  
          __end_of_MSSP_I2C_Master_Send_Start 232E                    _MSSP_I2C_Master_Send_Start 22EC  
                                  _btn_values 1001                                _tris_registers 0094  
             ??_I2C_Slave_Mode_Configurations 0004                      _RB6_InterruptHandler_LOW 00F5  
                               ?_MSSP_SPI_ISR 0001                                       _i2c_obj 00C6  
                        _ADC_InterruptHandler 0061                                       __Hparam 0000  
                                  _cross_bar1 00AE                                    _cross_bar2 00A6  
                                  _cross_bar3 009E                                    _cross_bar4 0142  
                                     __Lparam 0000                           _ecu_layer_intialize 2418  
                        _SPI_InterruptHandler 00EF                                       ___fladd 1016  
                                     ___fldiv 18AC                                       ___fltol 1F40  
                                __psmallconst 1000                                       __pcinit 20E4  
                                     __ramtop 1000                                       __ptext0 2166  
                                     __ptext1 23F0                                       __ptext2 2418  
                                     __ptext3 22AA                                       __ptext4 22EC  
                                     __ptext5 1DFA                                       __ptext6 23F6  
                                     __ptext7 2260                                       __ptext8 232E  
                                     __ptext9 2046                                     _T0CONbits 000FD5  
                                   _T1CONbits 000FCD                                     _T2CONbits 000FCA  
                                     _keypad1 010A                                    ??___xxtofl 0006  
                                   _T3CONbits 000FB1                          ?_ecu_layer_intialize 0001  
            MSSP_I2C_Master_Send_Stop@i2c_obj 0002                                __pintcode_body 14D6  
                        end_of_initialization 215C                                       int_func 14D6  
                              ??_MSSP_SPI_ISR 0001                                     _RCSTAbits 000FAB  
                                     postdec1 000FE5                                       postdec2 000FDD  
                                     postinc0 000FEE                                       postinc2 000FDE  
                       _INT1_InterruptHandler 0057                                     _PORTBbits 000F81  
                            _InterruptManager 0008                                   ___fladd@grs 0038  
                       ??_ecu_layer_intialize 0002                                 ___xxtofl@sign 000A  
                                   _TRISCbits 000F94                                   ___fldiv@grs 0023  
                                 ___fldiv@rem 001C                                   _CCP1CONbits 000FBD  
                                 _CCP2CONbits 000FBA                                     _TXSTAbits 000FAC  
                     ?_MSSP_I2C_Mode_GPIO_CFG 0001                            relay_turn_on@F3475 0067  
       __end_of_I2C_Slave_Mode_Configurations 234A                 _I2C_Slave_Mode_Configurations 232E  
                           relay_toggle@F3485 0065                 convert_uint16_to_string@F3654 00D3  
                                 _BAUDCONbits 000FB8                                 __pidataCOMRAM 23B2  
                              _timer0_preload 004F                                _timer1_preload 004D  
                              _timer2_preload 0064                           start_initialization 20E4  
                              _timer3_preload 004B                __end_of_MSSP_I2C_Mode_GPIO_CFG 23FC  
                   _EUSART_RxInterruptHandler 00E3             CCP1_Capture_Mode_Read_Value@F3540 005B  
                  _EUSART_FramingErrorHandler 00E1                                   __pdataBANK0 0080  
                                 __pdataBANK1 0100                                      ?_ADC_ISR 0001  
                                   ___fladd@a 002D                                     ___fladd@b 0029  
                        __end_of_MSSP_SPI_ISR 2400                          MSSP_I2C_Init@i2c_obj 0047  
                                   ___fldiv@a 0014                                     ___fldiv@b 0010  
                                    ?_RB4_ISR 0001                                      ?_RB5_ISR 0001  
                                    ?_RB6_ISR 0001                                      ?_RB7_ISR 0001  
                                 __pbssCOMRAM 004B   _I2C_Report_Write_Collision_InterruptHandler 00DD  
                 ?_MSSP_I2C_Master_Send_Start 0002                         _INT2_InterruptHandler 0055  
                       _TMR0_InterruptHandler 00ED                                   __pin_config 007D  
                               _MSSP_I2C_Init 1DFA                         _application_intialize 23F0  
                                   __pintcode 0008                                      ?___fladd 0029  
                                    ?___fldiv 0010                                      ?___fltol 0039  
              ?_I2C_Slave_Mode_Configurations 0002                                   __smallconst 1000  
                   _RB4_InterruptHandler_HIGH 0053                                      _CCP1_ISR 2410  
                                    _CCP2_ISR 240C                     _RB7_InterruptHandler_HIGH 00F3  
                    _RB5_InterruptHandler_LOW 00F9                                      _INT0_ISR 2408  
                                    _INT1_ISR 2404                                      _INT2_ISR 2400  
                                    _RB4_Flag 0077                                      _RB5_Flag 0076  
                                    _RB6_Flag 0075                                      _RB7_Flag 0074  
                           RB4_ISR@RB4_Source 0001                      __end_of_InterruptManager 18AC  
                                    _PIE1bits 000F9D                                      _PIE2bits 000FA0  
                              ?_MSSP_I2C_Init 0047      MSSP_I2C_Interrupt_Configurations@i2c_obj 0002  
                                    i2u118_40 23AC                                      i2u118_41 23A8  
                                    _PIR1bits 000F9E                                      _PIR2bits 000FA1  
                                    i2u700_40 1816                                      i2u700_41 1812  
                                    i2u701_40 1826                                      i2u701_41 1822  
                                    i2u702_40 1836                                      i2u702_41 1832  
                                    i2u703_40 1846                                      i2u703_41 1842  
                                    i2u536_40 2392                                      i2u704_40 1856  
                                    i2u536_41 238E                                      i2u704_41 1852  
                                    i2u537_40 2378                                      i2u705_40 1864  
                                    i2u537_41 2374                                      i2u705_41 1860  
                                    i2u538_40 235E                                      i2u706_40 1876  
                                    i2u538_41 235A                                      i2u706_41 1872  
                                    i2u707_40 1884                                      i2u651_40 14E6  
                                    i2u707_41 1880                                      i2u651_41 14E2  
                                    i2u708_40 1896                                      i2u660_40 1574  
                                    i2u652_40 14F4                                      i2u708_41 1892  
                                    i2u660_41 1570                                      i2u652_41 14F0  
                                    i2u709_40 18A4                                      i2u661_40 1582  
                                    i2u653_40 1506                                      i2u709_41 18A0  
                                    i2u661_41 157E                                      i2u653_41 1502  
                                    i2u670_40 161A                                      i2u662_40 1592  
                                    i2u654_40 1514                                      i2u670_41 1616  
                                    i2u662_41 158E                                      i2u654_41 1510  
                                    i2u671_40 1632                                      i2u663_40 15AA  
                                    i2u655_40 1526                                      i2u671_41 162E  
                                    i2u663_41 15A6                                      i2u655_41 1522  
                                    i2u680_40 16C8                                      i2u672_40 1640  
                                    i2u664_40 15B8                                      i2u656_40 1534  
                                    i2u680_41 16C4                                      i2u672_41 163C  
                                    i2u664_41 15B4                                      i2u656_41 1530  
                                    i2u681_40 16D6                                      i2u673_40 164E  
                                    i2u665_40 15C6                                      i2u657_40 1546  
                                    i2u681_41 16D2                                      i2u673_41 164A  
                                    i2u665_41 15C2                                      i2u657_41 1542  
                                    i2u690_40 176E                                      i2u682_40 16E6  
                                    i2u674_40 165E                                      i2u666_40 15D6  
                                    i2u658_40 1554                                      i2u690_41 176A  
                                    i2u682_41 16E2                                      i2u674_41 165A  
                                    i2u666_41 15D2                                      i2u658_41 1550  
                                    i2u691_40 1786                                      i2u683_40 16FE  
                                    i2u675_40 1676                                      i2u667_40 15EE  
                                    i2u659_40 1566                                      i2u691_41 1782  
                                    i2u683_41 16FA                                      i2u675_41 1672  
                                    i2u667_41 15EA                                      i2u659_41 1562  
                                    i2u692_40 1796                                      i2u684_40 170C  
                                    i2u676_40 1684                                      i2u668_40 15FC  
                                    i2u692_41 1792                                      i2u684_41 1708  
                                    i2u676_41 1680                                      i2u668_41 15F8  
                                    i2u693_40 17A4                                      i2u685_40 171A  
                                    i2u677_40 1692                                      i2u669_40 160A  
                                    i2u693_41 17A0                                      i2u685_41 1716  
                                    i2u677_41 168E                                      i2u669_41 1606  
                                    i2u694_40 17B6                                      i2u686_40 172A  
                                    i2u678_40 16A2                                      i2u694_41 17B2  
                                    i2u686_41 1726                                      i2u678_41 169E  
                                    i2u695_40 17C4                                      i2u687_40 1742  
                                    i2u679_40 16BA                                      i2u695_41 17C0  
                                    i2u687_41 173E                                      i2u679_41 16B6  
                                    i2u696_40 17D6                                      i2u688_40 1750  
                                    i2u696_41 17D2                                      i2u688_41 174C  
                                    i2u697_40 17E4                                      i2u689_40 175E  
                                    i2u697_41 17E0                                      i2u689_41 175A  
                                    i2u698_40 17F6                                      i2u698_41 17F2  
                                    i2u699_40 1804                                      i2u699_41 1800  
                                   _slave_ack 0063                                      _TMR0_ISR 23DC  
                                    _TMR1_ISR 23D0                                      _TMR2_ISR 23E8  
                                    _TMR3_ISR 23C4          I2C_Slave_Mode_Configurations@i2c_obj 0002  
                                  _ADCON0bits 000FC2                                    _ADCON1bits 000FC1  
                                  _ADCON2bits 000FC0                                   _INTCON2bits 000FF1  
                                 _INTCON3bits 000FF0                                     copy_data0 20F8  
                                   copy_data1 2118                                     copy_data2 2138  
                                   _zizo_dead 0132                                    _EECON1bits 000FA6  
                      ?_application_intialize 0001                                      __Hrparam 0000  
                                    __Lrparam 0000                             RB6_ISR@RB6_Source 0001  
                       _CCP1_InterruptHandler 005F                   __end_of_ecu_layer_intialize 241A  
                          __end_of_btn_values 1011                    ?_MSSP_I2C_Master_Send_Stop 0002  
                       _TMR1_InterruptHandler 00EB             MSSP_I2C_Master_Send_Start@i2c_obj 0002  
                                    ___xxtofl 1C46                                      __ptext10 1C46  
                                    __ptext11 1F40                                      __ptext20 2364  
                                    __ptext12 18AC                                      __ptext21 237E  
                                    __ptext13 1016                                      __ptext22 2398  
                                    __ptext23 23FC                                      __ptext15 23C4  
                                    __ptext24 2400                                      __ptext16 23E8  
                                    __ptext25 2404                                      __ptext17 23D0  
                                    __ptext26 2408                                      __ptext18 23DC  
                                    __ptext27 240C                                      __ptext19 234A  
                                    __ptext28 2410                                      __ptext29 2414  
 I2C_Master_Mode_Clock_Configurations@i2c_obj 0043                  MSSP_I2C_Master_Send_Stop@ret 0004  
                             ??_MSSP_I2C_Init 0049                                  _MSSP_SPI_ISR 23FC  
                                    isa$xinst 000000                                      int$flags 007E  
                     SPI_Slave_Gpio_Cfg@F3542 0070                       SPI_Slave_Gpio_Cfg@F3544 006F  
                     SPI_Slave_Gpio_Cfg@F3546 006E                       SPI_Slave_Gpio_Cfg@F3548 006D  
           __end_of_MSSP_I2C_Master_Send_Stop 22EC                                    _INTCONbits 000FF2  
                                    intlevel2 0000                     _EUSART_TxInterruptHandler 00E5  
   __end_of_MSSP_I2C_Interrupt_Configurations 22AA           ??_MSSP_I2C_Interrupt_Configurations 0004  
          ?_MSSP_I2C_Interrupt_Configurations 0002             _MSSP_I2C_Interrupt_Configurations 2260  
                              _port_registers 0080                                   _SSPCON1bits 000FC6  
                                 _SSPCON2bits 000FC5                                 ___fladd@signs 0035  
                       _CCP2_InterruptHandler 005D                                  ___fladd@aexp 0036  
                                ___fladd@bexp 0037                         _TMR2_InterruptHandler 00E9  
                           ?_InterruptManager 0001  
